	.text
	.syntax unified
	.eabi_attribute	67, "2.09"	@ Tag_conformance
	.cpu	cortex-m23
	.eabi_attribute	6, 16	@ Tag_CPU_arch
	.eabi_attribute	7, 77	@ Tag_CPU_arch_profile
	.eabi_attribute	8, 0	@ Tag_ARM_ISA_use
	.eabi_attribute	9, 3	@ Tag_THUMB_ISA_use
	.eabi_attribute	34, 0	@ Tag_CPU_unaligned_access
	.eabi_attribute	17, 1	@ Tag_ABI_PCS_GOT_use
	.eabi_attribute	20, 2	@ Tag_ABI_FP_denormal
	.eabi_attribute	21, 0	@ Tag_ABI_FP_exceptions
	.eabi_attribute	23, 1	@ Tag_ABI_FP_number_model
	.eabi_attribute	24, 1	@ Tag_ABI_align_needed
	.eabi_attribute	25, 1	@ Tag_ABI_align_preserved
	.eabi_attribute	38, 1	@ Tag_ABI_FP_16bit_format
	.eabi_attribute	18, 2	@ Tag_ABI_PCS_wchar_t
	.eabi_attribute	26, 1	@ Tag_ABI_enum_size
	.eabi_attribute	14, 0	@ Tag_ABI_PCS_R9_use
	.file	"hid_transfer.c"
	.file	1 "C:\\Keil_v5\\ARM\\ARMCLANG\\Bin\\..\\include" "stdint.h"
	.file	2 "D:\\Software Tools\\Keil\\Test\\M251BSP-master\\M251BSP-master\\SampleCode\\StdDriver\\USBD_HID_Transfer\\KEIL" "../hid_transfer.c"
	.file	3 "D:\\Software Tools\\Keil\\Test\\M251BSP-master\\M251BSP-master\\SampleCode\\StdDriver\\USBD_HID_Transfer\\KEIL" "../../../../Library/Device/Nuvoton/M251/Include/usbd_reg.h"
	.section	.text.USBD_IRQHandler,"ax",%progbits
	.hidden	USBD_IRQHandler                 @ -- Begin function USBD_IRQHandler
	.globl	USBD_IRQHandler
	.p2align	2
	.type	USBD_IRQHandler,%function
	.code	16                              @ @USBD_IRQHandler
	.thumb_func
USBD_IRQHandler:
.Lfunc_begin0:
	.loc	2 21 0                          @ ../hid_transfer.c:21:0
	.fnstart
	.cfi_sections .debug_frame
	.cfi_startproc
@ %bb.0:
	.save	{r7, lr}
	push	{r7, lr}
	.cfi_def_cfa_offset 8
	.cfi_offset lr, -4
	.cfi_offset r7, -8
	.pad	#8
	sub	sp, #8
	.cfi_def_cfa_offset 16
	ldr	r0, __arm_cp.0_0
.Ltmp0:
	.loc	2 22 26 prologue_end            @ ../hid_transfer.c:22:26
	ldr	r0, [r0]
	.loc	2 22 14 is_stmt 0               @ ../hid_transfer.c:22:14
	str	r0, [sp, #4]
	ldr	r0, __arm_cp.0_1
	.loc	2 23 25 is_stmt 1               @ ../hid_transfer.c:23:25
	ldr	r0, [r0]
	ldr	r1, __arm_cp.0_2
	ands	r0, r1
	.loc	2 23 14 is_stmt 0               @ ../hid_transfer.c:23:14
	str	r0, [sp]
	add	r0, sp, #4
	.loc	2 26 9 is_stmt 1                @ ../hid_transfer.c:26:9
	ldrb	r0, [r0]
	lsls	r0, r0, #29
	cmp	r0, #0
	bpl	.LBB0_5
	b	.LBB0_1
.LBB0_1:
	.loc	2 0 9 is_stmt 0                 @ ../hid_transfer.c:0:9
	ldr	r1, __arm_cp.0_0
	movs	r0, #4
.Ltmp1:
	.loc	2 29 9 is_stmt 1                @ ../hid_transfer.c:29:9
	str	r0, [r1]
	ldr	r0, __arm_cp.0_3
.Ltmp2:
	.loc	2 31 13                         @ ../hid_transfer.c:31:13
	ldr	r0, [r0]
.Ltmp3:
	.loc	2 31 13 is_stmt 0               @ ../hid_transfer.c:31:13
	lsls	r0, r0, #31
	cbz	r0, .LBB0_3
	b	.LBB0_2
.LBB0_2:
	.loc	2 0 13                          @ ../hid_transfer.c:0:13
	ldr	r1, __arm_cp.0_1
.Ltmp4:
	.loc	2 34 13 is_stmt 1               @ ../hid_transfer.c:34:13
	ldr	r0, [r1]
	movw	r2, #2000
	orrs	r0, r2
	str	r0, [r1]
	.loc	2 35 9                          @ ../hid_transfer.c:35:9
	b	.LBB0_4
.Ltmp5:
.LBB0_3:
	.loc	2 0 9 is_stmt 0                 @ ../hid_transfer.c:0:9
	ldr	r1, __arm_cp.0_1
.Ltmp6:
	.loc	2 39 13 is_stmt 1               @ ../hid_transfer.c:39:13
	ldr	r0, [r1]
	movs	r2, #128
	bics	r0, r2
	str	r0, [r1]
	b	.LBB0_4
.Ltmp7:
.LBB0_4:
	.loc	2 41 5                          @ ../hid_transfer.c:41:5
	b	.LBB0_5
.Ltmp8:
.LBB0_5:
	.loc	2 0 5 is_stmt 0                 @ ../hid_transfer.c:0:5
	add	r0, sp, #4
	.loc	2 44 9 is_stmt 1                @ ../hid_transfer.c:44:9
	ldrb	r0, [r0]
	lsls	r0, r0, #31
	cbz	r0, .LBB0_13
	b	.LBB0_6
.LBB0_6:
	.loc	2 0 9 is_stmt 0                 @ ../hid_transfer.c:0:9
	ldr	r1, __arm_cp.0_0
	movs	r0, #1
.Ltmp9:
	.loc	2 47 9 is_stmt 1                @ ../hid_transfer.c:47:9
	str	r0, [r1]
	mov	r0, sp
	.loc	2 49 13                         @ ../hid_transfer.c:49:13
	ldrb	r0, [r0]
	lsls	r0, r0, #31
	cbz	r0, .LBB0_8
	b	.LBB0_7
.LBB0_7:
	.loc	2 0 13 is_stmt 0                @ ../hid_transfer.c:0:13
	ldr	r1, __arm_cp.0_1
.Ltmp10:
	.loc	2 52 13 is_stmt 1               @ ../hid_transfer.c:52:13
	ldr	r0, [r1]
	movw	r2, #2000
	orrs	r0, r2
	str	r0, [r1]
	.loc	2 53 13                         @ ../hid_transfer.c:53:13
	bl	USBD_SwReset
	.loc	2 54 25                         @ ../hid_transfer.c:54:25
	ldr	r1, __arm_cp.0_4
	movs	r0, #0
	strb	r0, [r1]
	.loc	2 55 9                          @ ../hid_transfer.c:55:9
	b	.LBB0_8
.Ltmp11:
.LBB0_8:
	.loc	2 0 9 is_stmt 0                 @ ../hid_transfer.c:0:9
	mov	r0, sp
	.loc	2 57 13 is_stmt 1               @ ../hid_transfer.c:57:13
	ldrb	r0, [r0]
	lsls	r0, r0, #30
	cmp	r0, #0
	bpl	.LBB0_10
	b	.LBB0_9
.LBB0_9:
.Ltmp12:
	.loc	2 60 25                         @ ../hid_transfer.c:60:25
	ldr	r1, __arm_cp.0_4
	movs	r0, #1
	strb	r0, [r1]
	ldr	r1, __arm_cp.0_1
	.loc	2 63 13                         @ ../hid_transfer.c:63:13
	ldr	r0, [r1]
	movs	r2, #16
	bics	r0, r2
	str	r0, [r1]
	.loc	2 64 9                          @ ../hid_transfer.c:64:9
	b	.LBB0_10
.Ltmp13:
.LBB0_10:
	.loc	2 0 9 is_stmt 0                 @ ../hid_transfer.c:0:9
	mov	r0, sp
	.loc	2 66 13 is_stmt 1               @ ../hid_transfer.c:66:13
	ldrb	r0, [r0]
	lsls	r0, r0, #29
	cmp	r0, #0
	bpl	.LBB0_12
	b	.LBB0_11
.LBB0_11:
	.loc	2 0 13 is_stmt 0                @ ../hid_transfer.c:0:13
	ldr	r1, __arm_cp.0_1
.Ltmp14:
	.loc	2 69 13 is_stmt 1               @ ../hid_transfer.c:69:13
	ldr	r0, [r1]
	movw	r2, #2000
	orrs	r0, r2
	str	r0, [r1]
	.loc	2 70 25                         @ ../hid_transfer.c:70:25
	ldr	r1, __arm_cp.0_4
	movs	r0, #0
	strb	r0, [r1]
	.loc	2 71 9                          @ ../hid_transfer.c:71:9
	b	.LBB0_12
.Ltmp15:
.LBB0_12:
	.loc	2 93 5                          @ ../hid_transfer.c:93:5
	b	.LBB0_13
.Ltmp16:
.LBB0_13:
	.loc	2 0 5 is_stmt 0                 @ ../hid_transfer.c:0:5
	add	r0, sp, #4
	.loc	2 95 9 is_stmt 1                @ ../hid_transfer.c:95:9
	ldrb	r0, [r0]
	lsls	r0, r0, #28
	cmp	r0, #0
	bpl	.LBB0_15
	b	.LBB0_14
.LBB0_14:
	.loc	2 0 9 is_stmt 0                 @ ../hid_transfer.c:0:9
	ldr	r1, __arm_cp.0_0
	movs	r0, #8
.Ltmp17:
	.loc	2 98 9 is_stmt 1                @ ../hid_transfer.c:98:9
	str	r0, [r1]
	.loc	2 102 5                         @ ../hid_transfer.c:102:5
	b	.LBB0_15
.Ltmp18:
.LBB0_15:
	.loc	2 0 5 is_stmt 0                 @ ../hid_transfer.c:0:5
	add	r0, sp, #4
	.loc	2 105 9 is_stmt 1               @ ../hid_transfer.c:105:9
	ldrb	r0, [r0]
	lsls	r0, r0, #30
	cmp	r0, #0
	bmi	.LBB0_16
	b	.LBB0_43
.LBB0_16:
	.loc	2 0 9 is_stmt 0                 @ ../hid_transfer.c:0:9
	add	r0, sp, #4
.Ltmp19:
	.loc	2 108 13 is_stmt 1              @ ../hid_transfer.c:108:13
	ldrb	r0, [r0, #3]
	lsls	r0, r0, #24
	cmp	r0, #0
	bpl	.LBB0_18
	b	.LBB0_17
.LBB0_17:
	.loc	2 0 13 is_stmt 0                @ ../hid_transfer.c:0:13
	movs	r2, #1
	lsls	r0, r2, #31
	ldr	r1, __arm_cp.0_0
.Ltmp20:
	.loc	2 112 13 is_stmt 1              @ ../hid_transfer.c:112:13
	str	r0, [r1]
	ldr	r1, __arm_cp.0_5
	.loc	2 115 13                        @ ../hid_transfer.c:115:13
	ldr	r0, [r1]
	orrs	r0, r2
	str	r0, [r1]
	ldr	r1, __arm_cp.0_6
	.loc	2 116 13                        @ ../hid_transfer.c:116:13
	ldr	r0, [r1]
	orrs	r0, r2
	str	r0, [r1]
	.loc	2 118 13                        @ ../hid_transfer.c:118:13
	bl	USBD_ProcessSetupPacket
	.loc	2 119 9                         @ ../hid_transfer.c:119:9
	b	.LBB0_18
.Ltmp21:
.LBB0_18:
	.loc	2 0 9 is_stmt 0                 @ ../hid_transfer.c:0:9
	add	r0, sp, #4
	.loc	2 122 13 is_stmt 1              @ ../hid_transfer.c:122:13
	ldrb	r0, [r0, #2]
	lsls	r0, r0, #31
	cbz	r0, .LBB0_20
	b	.LBB0_19
.LBB0_19:
	.loc	2 0 13 is_stmt 0                @ ../hid_transfer.c:0:13
	movs	r0, #1
	lsls	r0, r0, #16
	ldr	r1, __arm_cp.0_0
.Ltmp22:
	.loc	2 125 13 is_stmt 1              @ ../hid_transfer.c:125:13
	str	r0, [r1]
	.loc	2 127 13                        @ ../hid_transfer.c:127:13
	bl	USBD_CtrlIn
	.loc	2 128 9                         @ ../hid_transfer.c:128:9
	b	.LBB0_20
.Ltmp23:
.LBB0_20:
	.loc	2 0 9 is_stmt 0                 @ ../hid_transfer.c:0:9
	add	r0, sp, #4
	.loc	2 130 13 is_stmt 1              @ ../hid_transfer.c:130:13
	ldrb	r0, [r0, #2]
	lsls	r0, r0, #30
	cmp	r0, #0
	bpl	.LBB0_22
	b	.LBB0_21
.LBB0_21:
	.loc	2 0 13 is_stmt 0                @ ../hid_transfer.c:0:13
	movs	r0, #1
	lsls	r0, r0, #17
	ldr	r1, __arm_cp.0_0
.Ltmp24:
	.loc	2 133 13 is_stmt 1              @ ../hid_transfer.c:133:13
	str	r0, [r1]
	.loc	2 136 13                        @ ../hid_transfer.c:136:13
	bl	USBD_CtrlOut
	.loc	2 137 9                         @ ../hid_transfer.c:137:9
	b	.LBB0_22
.Ltmp25:
.LBB0_22:
	.loc	2 0 9 is_stmt 0                 @ ../hid_transfer.c:0:9
	add	r0, sp, #4
	.loc	2 139 13 is_stmt 1              @ ../hid_transfer.c:139:13
	ldrb	r0, [r0, #2]
	lsls	r0, r0, #29
	cmp	r0, #0
	bpl	.LBB0_24
	b	.LBB0_23
.LBB0_23:
	.loc	2 0 13 is_stmt 0                @ ../hid_transfer.c:0:13
	movs	r0, #1
	lsls	r0, r0, #18
	ldr	r1, __arm_cp.0_0
.Ltmp26:
	.loc	2 142 13 is_stmt 1              @ ../hid_transfer.c:142:13
	str	r0, [r1]
	.loc	2 144 13                        @ ../hid_transfer.c:144:13
	bl	EP2_Handler
	.loc	2 145 9                         @ ../hid_transfer.c:145:9
	b	.LBB0_24
.Ltmp27:
.LBB0_24:
	.loc	2 0 9 is_stmt 0                 @ ../hid_transfer.c:0:9
	add	r0, sp, #4
	.loc	2 147 13 is_stmt 1              @ ../hid_transfer.c:147:13
	ldrb	r0, [r0, #2]
	lsls	r0, r0, #28
	cmp	r0, #0
	bpl	.LBB0_26
	b	.LBB0_25
.LBB0_25:
	.loc	2 0 13 is_stmt 0                @ ../hid_transfer.c:0:13
	movs	r0, #1
	lsls	r0, r0, #19
	ldr	r1, __arm_cp.0_0
.Ltmp28:
	.loc	2 150 13 is_stmt 1              @ ../hid_transfer.c:150:13
	str	r0, [r1]
	.loc	2 152 13                        @ ../hid_transfer.c:152:13
	bl	EP3_Handler
	.loc	2 153 9                         @ ../hid_transfer.c:153:9
	b	.LBB0_26
.Ltmp29:
.LBB0_26:
	.loc	2 0 9 is_stmt 0                 @ ../hid_transfer.c:0:9
	add	r0, sp, #4
	.loc	2 155 13 is_stmt 1              @ ../hid_transfer.c:155:13
	ldrb	r0, [r0, #2]
	lsls	r0, r0, #27
	cmp	r0, #0
	bpl	.LBB0_28
	b	.LBB0_27
.LBB0_27:
	.loc	2 0 13 is_stmt 0                @ ../hid_transfer.c:0:13
	movs	r0, #1
	lsls	r0, r0, #20
	ldr	r1, __arm_cp.0_0
.Ltmp30:
	.loc	2 158 13 is_stmt 1              @ ../hid_transfer.c:158:13
	str	r0, [r1]
	.loc	2 159 9                         @ ../hid_transfer.c:159:9
	b	.LBB0_28
.Ltmp31:
.LBB0_28:
	.loc	2 0 9 is_stmt 0                 @ ../hid_transfer.c:0:9
	add	r0, sp, #4
	.loc	2 161 13 is_stmt 1              @ ../hid_transfer.c:161:13
	ldrb	r0, [r0, #2]
	lsls	r0, r0, #26
	cmp	r0, #0
	bpl	.LBB0_30
	b	.LBB0_29
.LBB0_29:
	.loc	2 0 13 is_stmt 0                @ ../hid_transfer.c:0:13
	movs	r0, #1
	lsls	r0, r0, #21
	ldr	r1, __arm_cp.0_0
.Ltmp32:
	.loc	2 164 13 is_stmt 1              @ ../hid_transfer.c:164:13
	str	r0, [r1]
	.loc	2 165 9                         @ ../hid_transfer.c:165:9
	b	.LBB0_30
.Ltmp33:
.LBB0_30:
	.loc	2 0 9 is_stmt 0                 @ ../hid_transfer.c:0:9
	add	r0, sp, #4
	.loc	2 167 13 is_stmt 1              @ ../hid_transfer.c:167:13
	ldrb	r0, [r0, #2]
	lsls	r0, r0, #25
	cmp	r0, #0
	bpl	.LBB0_32
	b	.LBB0_31
.LBB0_31:
	.loc	2 0 13 is_stmt 0                @ ../hid_transfer.c:0:13
	movs	r0, #1
	lsls	r0, r0, #22
	ldr	r1, __arm_cp.0_0
.Ltmp34:
	.loc	2 170 13 is_stmt 1              @ ../hid_transfer.c:170:13
	str	r0, [r1]
	.loc	2 171 9                         @ ../hid_transfer.c:171:9
	b	.LBB0_32
.Ltmp35:
.LBB0_32:
	.loc	2 0 9 is_stmt 0                 @ ../hid_transfer.c:0:9
	add	r0, sp, #4
	.loc	2 173 13 is_stmt 1              @ ../hid_transfer.c:173:13
	ldrb	r0, [r0, #2]
	lsls	r0, r0, #24
	cmp	r0, #0
	bpl	.LBB0_34
	b	.LBB0_33
.LBB0_33:
	.loc	2 0 13 is_stmt 0                @ ../hid_transfer.c:0:13
	movs	r0, #1
	lsls	r0, r0, #23
	ldr	r1, __arm_cp.0_0
.Ltmp36:
	.loc	2 176 13 is_stmt 1              @ ../hid_transfer.c:176:13
	str	r0, [r1]
	.loc	2 177 9                         @ ../hid_transfer.c:177:9
	b	.LBB0_34
.Ltmp37:
.LBB0_34:
	.loc	2 0 9 is_stmt 0                 @ ../hid_transfer.c:0:9
	add	r0, sp, #4
	.loc	2 179 13 is_stmt 1              @ ../hid_transfer.c:179:13
	ldrb	r0, [r0, #3]
	lsls	r0, r0, #31
	cbz	r0, .LBB0_36
	b	.LBB0_35
.LBB0_35:
	.loc	2 0 13 is_stmt 0                @ ../hid_transfer.c:0:13
	movs	r0, #1
	lsls	r0, r0, #24
	ldr	r1, __arm_cp.0_0
.Ltmp38:
	.loc	2 182 13 is_stmt 1              @ ../hid_transfer.c:182:13
	str	r0, [r1]
	.loc	2 183 9                         @ ../hid_transfer.c:183:9
	b	.LBB0_36
.Ltmp39:
.LBB0_36:
	.loc	2 0 9 is_stmt 0                 @ ../hid_transfer.c:0:9
	add	r0, sp, #4
	.loc	2 185 13 is_stmt 1              @ ../hid_transfer.c:185:13
	ldrb	r0, [r0, #3]
	lsls	r0, r0, #30
	cmp	r0, #0
	bpl	.LBB0_38
	b	.LBB0_37
.LBB0_37:
	.loc	2 0 13 is_stmt 0                @ ../hid_transfer.c:0:13
	movs	r0, #1
	lsls	r0, r0, #25
	ldr	r1, __arm_cp.0_0
.Ltmp40:
	.loc	2 188 13 is_stmt 1              @ ../hid_transfer.c:188:13
	str	r0, [r1]
	.loc	2 189 9                         @ ../hid_transfer.c:189:9
	b	.LBB0_38
.Ltmp41:
.LBB0_38:
	.loc	2 0 9 is_stmt 0                 @ ../hid_transfer.c:0:9
	add	r0, sp, #4
	.loc	2 191 13 is_stmt 1              @ ../hid_transfer.c:191:13
	ldrb	r0, [r0, #3]
	lsls	r0, r0, #29
	cmp	r0, #0
	bpl	.LBB0_40
	b	.LBB0_39
.LBB0_39:
	.loc	2 0 13 is_stmt 0                @ ../hid_transfer.c:0:13
	movs	r0, #1
	lsls	r0, r0, #26
	ldr	r1, __arm_cp.0_0
.Ltmp42:
	.loc	2 194 13 is_stmt 1              @ ../hid_transfer.c:194:13
	str	r0, [r1]
	.loc	2 195 9                         @ ../hid_transfer.c:195:9
	b	.LBB0_40
.Ltmp43:
.LBB0_40:
	.loc	2 0 9 is_stmt 0                 @ ../hid_transfer.c:0:9
	add	r0, sp, #4
	.loc	2 197 13 is_stmt 1              @ ../hid_transfer.c:197:13
	ldrb	r0, [r0, #3]
	lsls	r0, r0, #28
	cmp	r0, #0
	bpl	.LBB0_42
	b	.LBB0_41
.LBB0_41:
	.loc	2 0 13 is_stmt 0                @ ../hid_transfer.c:0:13
	movs	r0, #1
	lsls	r0, r0, #27
	ldr	r1, __arm_cp.0_0
.Ltmp44:
	.loc	2 200 13 is_stmt 1              @ ../hid_transfer.c:200:13
	str	r0, [r1]
	.loc	2 201 9                         @ ../hid_transfer.c:201:9
	b	.LBB0_42
.Ltmp45:
.LBB0_42:
	.loc	2 202 5                         @ ../hid_transfer.c:202:5
	b	.LBB0_43
.Ltmp46:
.LBB0_43:
	.loc	2 203 1                         @ ../hid_transfer.c:203:1
	add	sp, #8
	pop	{r7, pc}
.Ltmp47:
	.p2align	2
@ %bb.44:
	.loc	2 0 1 is_stmt 0                 @ ../hid_transfer.c:0:1
__arm_cp.0_0:
	.long	1074528260                      @ 0x400c0004
.Lcpi_end0:
	.size	__arm_cp.0_0, .Lcpi_end0-__arm_cp.0_0
__arm_cp.0_1:
	.long	1074528272                      @ 0x400c0010
.Lcpi_end1:
	.size	__arm_cp.0_1, .Lcpi_end1-__arm_cp.0_1
__arm_cp.0_2:
	.long	12303                           @ 0x300f
.Lcpi_end2:
	.size	__arm_cp.0_2, .Lcpi_end2-__arm_cp.0_2
__arm_cp.0_3:
	.long	1074528276                      @ 0x400c0014
.Lcpi_end3:
	.size	__arm_cp.0_3, .Lcpi_end3-__arm_cp.0_3
__arm_cp.0_4:
	.long	g_u8Suspend
.Lcpi_end4:
	.size	__arm_cp.0_4, .Lcpi_end4-__arm_cp.0_4
__arm_cp.0_5:
	.long	1074529548                      @ 0x400c050c
.Lcpi_end5:
	.size	__arm_cp.0_5, .Lcpi_end5-__arm_cp.0_5
__arm_cp.0_6:
	.long	1074529564                      @ 0x400c051c
.Lcpi_end6:
	.size	__arm_cp.0_6, .Lcpi_end6-__arm_cp.0_6
.Lfunc_end0:
	.size	USBD_IRQHandler, .Lfunc_end0-USBD_IRQHandler
	.cfi_endproc
	.cantunwind
	.fnend
                                        @ -- End function
	.section	.text.EP2_Handler,"ax",%progbits
	.hidden	EP2_Handler                     @ -- Begin function EP2_Handler
	.globl	EP2_Handler
	.p2align	1
	.type	EP2_Handler,%function
	.code	16                              @ @EP2_Handler
	.thumb_func
EP2_Handler:
.Lfunc_begin1:
	.loc	2 206 0 is_stmt 1               @ ../hid_transfer.c:206:0
	.fnstart
	.cfi_startproc
@ %bb.0:
	.loc	2 208 1 prologue_end            @ ../hid_transfer.c:208:1
	bx	lr
.Ltmp48:
.Lfunc_end1:
	.size	EP2_Handler, .Lfunc_end1-EP2_Handler
	.cfi_endproc
	.cantunwind
	.fnend
                                        @ -- End function
	.section	.text.EP3_Handler,"ax",%progbits
	.hidden	EP3_Handler                     @ -- Begin function EP3_Handler
	.globl	EP3_Handler
	.p2align	2
	.type	EP3_Handler,%function
	.code	16                              @ @EP3_Handler
	.thumb_func
EP3_Handler:
.Lfunc_begin2:
	.loc	2 211 0                         @ ../hid_transfer.c:211:0
	.fnstart
	.cfi_startproc
@ %bb.0:
	.save	{r7, lr}
	push	{r7, lr}
	.cfi_def_cfa_offset 8
	.cfi_offset lr, -4
	.cfi_offset r7, -8
	.pad	#8
	sub	sp, #8
	.cfi_def_cfa_offset 16
	ldr	r0, __arm_cp.2_0
.Ltmp49:
	.loc	2 213 42 prologue_end           @ ../hid_transfer.c:213:42
	ldr	r0, [r0]
	ldr	r1, __arm_cp.2_1
	.loc	2 213 40 is_stmt 0              @ ../hid_transfer.c:213:40
	adds	r0, r0, r1
	.loc	2 213 12                        @ ../hid_transfer.c:213:12
	str	r0, [sp, #4]
	.loc	2 214 16 is_stmt 1              @ ../hid_transfer.c:214:16
	ldr	r0, [sp, #4]
	ldr	r1, __arm_cp.2_2
	.loc	2 214 24 is_stmt 0              @ ../hid_transfer.c:214:24
	str	r1, [sp]                        @ 4-byte Spill
	ldr	r1, [r1]
	.loc	2 214 5                         @ ../hid_transfer.c:214:5
	bl	Gelen_Data
	ldr	r1, [sp]                        @ 4-byte Reload
	movs	r0, #64
	.loc	2 215 5 is_stmt 1               @ ../hid_transfer.c:215:5
	str	r0, [r1]
	.loc	2 218 1                         @ ../hid_transfer.c:218:1
	add	sp, #8
	pop	{r7, pc}
.Ltmp50:
	.p2align	2
@ %bb.1:
	.loc	2 0 1 is_stmt 0                 @ ../hid_transfer.c:0:1
__arm_cp.2_0:
	.long	1074529584                      @ 0x400c0530
.Lcpi_end7:
	.size	__arm_cp.2_0, .Lcpi_end7-__arm_cp.2_0
__arm_cp.2_1:
	.long	1074528512                      @ 0x400c0100
.Lcpi_end8:
	.size	__arm_cp.2_1, .Lcpi_end8-__arm_cp.2_1
__arm_cp.2_2:
	.long	1074529588                      @ 0x400c0534
.Lcpi_end9:
	.size	__arm_cp.2_2, .Lcpi_end9-__arm_cp.2_2
.Lfunc_end2:
	.size	EP3_Handler, .Lfunc_end2-EP3_Handler
	.cfi_endproc
	.cantunwind
	.fnend
                                        @ -- End function
	.section	.text.Gelen_Data,"ax",%progbits
	.hidden	Gelen_Data                      @ -- Begin function Gelen_Data
	.globl	Gelen_Data
	.p2align	1
	.type	Gelen_Data,%function
	.code	16                              @ @Gelen_Data
	.thumb_func
Gelen_Data:
.Lfunc_begin3:
	.loc	2 345 0 is_stmt 1               @ ../hid_transfer.c:345:0
	.fnstart
	.cfi_startproc
@ %bb.0:
	.save	{r7, lr}
	push	{r7, lr}
	.cfi_def_cfa_offset 8
	.cfi_offset lr, -4
	.cfi_offset r7, -8
	.pad	#8
	sub	sp, #8
	.cfi_def_cfa_offset 16
	str	r0, [sp, #4]
	str	r1, [sp]
.Ltmp51:
	.loc	2 347 7 prologue_end            @ ../hid_transfer.c:347:7
	ldr	r0, [sp, #4]
	ldrb	r0, [r0]
.Ltmp52:
	.loc	2 347 7 is_stmt 0               @ ../hid_transfer.c:347:7
	cmp	r0, #49
	bne	.LBB3_2
	b	.LBB3_1
.LBB3_1:
.Ltmp53:
	.loc	2 348 6 is_stmt 1               @ ../hid_transfer.c:348:6
	bl	Veri_Gonder
	.loc	2 349 2                         @ ../hid_transfer.c:349:2
	b	.LBB3_2
.Ltmp54:
.LBB3_2:
	.loc	2 355 1                         @ ../hid_transfer.c:355:1
	add	sp, #8
	pop	{r7, pc}
.Ltmp55:
.Lfunc_end3:
	.size	Gelen_Data, .Lfunc_end3-Gelen_Data
	.cfi_endproc
	.cantunwind
	.fnend
                                        @ -- End function
	.section	.text.HID_Init,"ax",%progbits
	.hidden	HID_Init                        @ -- Begin function HID_Init
	.globl	HID_Init
	.p2align	2
	.type	HID_Init,%function
	.code	16                              @ @HID_Init
	.thumb_func
HID_Init:
.Lfunc_begin4:
	.loc	2 222 0                         @ ../hid_transfer.c:222:0
	.fnstart
	.cfi_startproc
@ %bb.0:
	ldr	r1, __arm_cp.4_0
	movs	r0, #0
.Ltmp56:
	.loc	2 224 20 prologue_end           @ ../hid_transfer.c:224:20
	str	r0, [r1]
	ldr	r1, __arm_cp.4_1
	movw	r0, #576
	.loc	2 225 5                         @ ../hid_transfer.c:225:5
	str	r0, [r1]
	ldr	r1, __arm_cp.4_2
	movs	r0, #8
	.loc	2 226 5                         @ ../hid_transfer.c:226:5
	str	r0, [r1]
	ldr	r2, __arm_cp.4_3
	movw	r1, #544
	.loc	2 227 5                         @ ../hid_transfer.c:227:5
	str	r1, [r2]
	ldr	r1, __arm_cp.4_4
	.loc	2 228 5                         @ ../hid_transfer.c:228:5
	str	r0, [r1]
	ldr	r1, __arm_cp.4_5
	movs	r0, #65
	.loc	2 229 5                         @ ../hid_transfer.c:229:5
	str	r0, [r1]
	ldr	r1, __arm_cp.4_6
	movs	r0, #16
	.loc	2 230 5                         @ ../hid_transfer.c:230:5
	str	r0, [r1]
	ldr	r1, __arm_cp.4_7
	movs	r0, #34
	.loc	2 231 5                         @ ../hid_transfer.c:231:5
	str	r0, [r1]
	ldr	r1, __arm_cp.4_8
	movs	r0, #80
	.loc	2 232 5                         @ ../hid_transfer.c:232:5
	str	r0, [r1]
	ldr	r1, __arm_cp.4_9
	movs	r0, #64
	.loc	2 233 5                         @ ../hid_transfer.c:233:5
	str	r0, [r1]
	.loc	2 234 1                         @ ../hid_transfer.c:234:1
	bx	lr
.Ltmp57:
	.p2align	2
@ %bb.1:
	.loc	2 0 1 is_stmt 0                 @ ../hid_transfer.c:0:1
__arm_cp.4_0:
	.long	1074528280                      @ 0x400c0018
.Lcpi_end10:
	.size	__arm_cp.4_0, .Lcpi_end10-__arm_cp.4_0
__arm_cp.4_1:
	.long	1074529544                      @ 0x400c0508
.Lcpi_end11:
	.size	__arm_cp.4_1, .Lcpi_end11-__arm_cp.4_1
__arm_cp.4_2:
	.long	1074529536                      @ 0x400c0500
.Lcpi_end12:
	.size	__arm_cp.4_2, .Lcpi_end12-__arm_cp.4_2
__arm_cp.4_3:
	.long	1074529560                      @ 0x400c0518
.Lcpi_end13:
	.size	__arm_cp.4_3, .Lcpi_end13-__arm_cp.4_3
__arm_cp.4_4:
	.long	1074529552                      @ 0x400c0510
.Lcpi_end14:
	.size	__arm_cp.4_4, .Lcpi_end14-__arm_cp.4_4
__arm_cp.4_5:
	.long	1074529576                      @ 0x400c0528
.Lcpi_end15:
	.size	__arm_cp.4_5, .Lcpi_end15-__arm_cp.4_5
__arm_cp.4_6:
	.long	1074529568                      @ 0x400c0520
.Lcpi_end16:
	.size	__arm_cp.4_6, .Lcpi_end16-__arm_cp.4_6
__arm_cp.4_7:
	.long	1074529592                      @ 0x400c0538
.Lcpi_end17:
	.size	__arm_cp.4_7, .Lcpi_end17-__arm_cp.4_7
__arm_cp.4_8:
	.long	1074529584                      @ 0x400c0530
.Lcpi_end18:
	.size	__arm_cp.4_8, .Lcpi_end18-__arm_cp.4_8
__arm_cp.4_9:
	.long	1074529588                      @ 0x400c0534
.Lcpi_end19:
	.size	__arm_cp.4_9, .Lcpi_end19-__arm_cp.4_9
.Lfunc_end4:
	.size	HID_Init, .Lfunc_end4-HID_Init
	.cfi_endproc
	.cantunwind
	.fnend
                                        @ -- End function
	.section	.text.HID_ClassRequest,"ax",%progbits
	.hidden	HID_ClassRequest                @ -- Begin function HID_ClassRequest
	.globl	HID_ClassRequest
	.p2align	2
	.type	HID_ClassRequest,%function
	.code	16                              @ @HID_ClassRequest
	.thumb_func
HID_ClassRequest:
.Lfunc_begin5:
	.loc	2 237 0 is_stmt 1               @ ../hid_transfer.c:237:0
	.fnstart
	.cfi_startproc
@ %bb.0:
	.save	{r7, lr}
	push	{r7, lr}
	.cfi_def_cfa_offset 8
	.cfi_offset lr, -4
	.cfi_offset r7, -8
	.pad	#24
	sub	sp, #24
	.cfi_def_cfa_offset 32
	add	r0, sp, #16
.Ltmp58:
	.loc	2 240 5 prologue_end            @ ../hid_transfer.c:240:5
	str	r0, [sp, #12]                   @ 4-byte Spill
	bl	USBD_GetSetupPacket
	ldr	r0, [sp, #12]                   @ 4-byte Reload
.Ltmp59:
	.loc	2 242 9                         @ ../hid_transfer.c:242:9
	ldrb	r0, [r0]
.Ltmp60:
	.loc	2 242 9 is_stmt 0               @ ../hid_transfer.c:242:9
	lsls	r0, r0, #24
	cmp	r0, #0
	bpl	.LBB5_9
	b	.LBB5_1
.LBB5_1:
	.loc	2 0 9                           @ ../hid_transfer.c:0:9
	add	r0, sp, #16
.Ltmp61:
	.loc	2 244 16 is_stmt 1              @ ../hid_transfer.c:244:16
	ldrb	r0, [r0, #1]
	.loc	2 244 8 is_stmt 0               @ ../hid_transfer.c:244:8
	str	r0, [sp, #8]                    @ 4-byte Spill
	cmp	r0, #1
	beq	.LBB5_6
	b	.LBB5_2
.LBB5_2:
	ldr	r0, [sp, #8]                    @ 4-byte Reload
	cmp	r0, #2
	beq	.LBB5_4
	b	.LBB5_3
.LBB5_3:
	ldr	r0, [sp, #8]                    @ 4-byte Reload
	cmp	r0, #3
	beq	.LBB5_5
	b	.LBB5_7
.LBB5_4:
	.loc	2 0 8                           @ ../hid_transfer.c:0:8
	add	r0, sp, #16
.Ltmp62:
	.loc	2 248 17 is_stmt 1              @ ../hid_transfer.c:248:17
	ldrb	r1, [r0, #6]
	ldr	r2, __arm_cp.5_5
	str	r1, [r2]
	.loc	2 249 47                        @ ../hid_transfer.c:249:47
	ldrb	r1, [r0, #6]
	.loc	2 249 17 is_stmt 0              @ ../hid_transfer.c:249:17
	ldr	r0, __arm_cp.5_3
	bl	USBD_PrepareCtrlIn
	movs	r1, #0
	.loc	2 250 17 is_stmt 1              @ ../hid_transfer.c:250:17
	mov	r0, r1
	bl	USBD_PrepareCtrlOut
	.loc	2 251 17                        @ ../hid_transfer.c:251:17
	b	.LBB5_8
.Ltmp63:
.LBB5_5:
	.loc	2 0 17 is_stmt 0                @ ../hid_transfer.c:0:17
	add	r0, sp, #16
.Ltmp64:
	.loc	2 256 17 is_stmt 1              @ ../hid_transfer.c:256:17
	ldrb	r1, [r0, #6]
	ldr	r2, __arm_cp.5_5
	str	r1, [r2]
	.loc	2 257 51                        @ ../hid_transfer.c:257:51
	ldrb	r1, [r0, #6]
	.loc	2 257 17 is_stmt 0              @ ../hid_transfer.c:257:17
	ldr	r0, __arm_cp.5_0
	bl	USBD_PrepareCtrlIn
	movs	r1, #0
	.loc	2 258 17 is_stmt 1              @ ../hid_transfer.c:258:17
	mov	r0, r1
	bl	USBD_PrepareCtrlOut
	.loc	2 259 17                        @ ../hid_transfer.c:259:17
	b	.LBB5_8
.LBB5_6:
	.loc	2 260 13                        @ ../hid_transfer.c:260:13
	b	.LBB5_7
.Ltmp65:
.LBB5_7:
	.loc	2 0 13 is_stmt 0                @ ../hid_transfer.c:0:13
	movs	r0, #0
.Ltmp66:
	.loc	2 266 17 is_stmt 1              @ ../hid_transfer.c:266:17
	bl	USBD_SetStall
	movs	r0, #1
	.loc	2 267 17                        @ ../hid_transfer.c:267:17
	bl	USBD_SetStall
	.loc	2 268 17                        @ ../hid_transfer.c:268:17
	b	.LBB5_8
.Ltmp67:
.LBB5_8:
	.loc	2 271 5                         @ ../hid_transfer.c:271:5
	b	.LBB5_19
.Ltmp68:
.LBB5_9:
	.loc	2 0 5 is_stmt 0                 @ ../hid_transfer.c:0:5
	add	r0, sp, #16
.Ltmp69:
	.loc	2 275 17 is_stmt 1              @ ../hid_transfer.c:275:17
	ldrb	r0, [r0, #1]
	.loc	2 275 9 is_stmt 0               @ ../hid_transfer.c:275:9
	str	r0, [sp, #4]                    @ 4-byte Spill
	cmp	r0, #9
	beq	.LBB5_12
	b	.LBB5_10
.LBB5_10:
	ldr	r0, [sp, #4]                    @ 4-byte Reload
	cmp	r0, #10
	beq	.LBB5_15
	b	.LBB5_11
.LBB5_11:
	ldr	r0, [sp, #4]                    @ 4-byte Reload
	cmp	r0, #11
	beq	.LBB5_16
	b	.LBB5_17
.LBB5_12:
	.loc	2 0 9                           @ ../hid_transfer.c:0:9
	add	r0, sp, #16
.Ltmp70:
	.loc	2 279 21 is_stmt 1              @ ../hid_transfer.c:279:21
	ldrb	r0, [r0, #3]
.Ltmp71:
	.loc	2 279 21 is_stmt 0              @ ../hid_transfer.c:279:21
	cmp	r0, #3
	bne	.LBB5_14
	b	.LBB5_13
.LBB5_13:
	.loc	2 0 21                          @ ../hid_transfer.c:0:21
	ldr	r1, __arm_cp.5_4
.Ltmp72:
	.loc	2 282 21 is_stmt 1              @ ../hid_transfer.c:282:21
	ldr	r0, [r1]
	movs	r2, #128
	orrs	r0, r2
	str	r0, [r1]
	ldr	r1, __arm_cp.5_5
	movs	r0, #0
	.loc	2 283 21                        @ ../hid_transfer.c:283:21
	str	r0, [r1]
	.loc	2 284 17                        @ ../hid_transfer.c:284:17
	b	.LBB5_14
.Ltmp73:
.LBB5_14:
	.loc	2 286 17                        @ ../hid_transfer.c:286:17
	b	.LBB5_18
.Ltmp74:
.LBB5_15:
	.loc	2 0 17 is_stmt 0                @ ../hid_transfer.c:0:17
	add	r0, sp, #16
.Ltmp75:
	.loc	2 291 28 is_stmt 1              @ ../hid_transfer.c:291:28
	ldrb	r0, [r0, #3]
	.loc	2 291 26 is_stmt 0              @ ../hid_transfer.c:291:26
	ldr	r1, __arm_cp.5_3
	strb	r0, [r1]
	ldr	r1, __arm_cp.5_1
	.loc	2 293 17 is_stmt 1              @ ../hid_transfer.c:293:17
	ldr	r0, [r1]
	movs	r2, #128
	orrs	r0, r2
	str	r0, [r1]
	ldr	r1, __arm_cp.5_2
	movs	r0, #0
	.loc	2 294 17                        @ ../hid_transfer.c:294:17
	str	r0, [r1]
	.loc	2 295 17                        @ ../hid_transfer.c:295:17
	b	.LBB5_18
.Ltmp76:
.LBB5_16:
	.loc	2 0 17 is_stmt 0                @ ../hid_transfer.c:0:17
	add	r0, sp, #16
.Ltmp77:
	.loc	2 300 32 is_stmt 1              @ ../hid_transfer.c:300:32
	ldrb	r0, [r0, #2]
	.loc	2 300 30 is_stmt 0              @ ../hid_transfer.c:300:30
	ldr	r1, __arm_cp.5_0
	strb	r0, [r1]
	ldr	r1, __arm_cp.5_1
	.loc	2 302 17 is_stmt 1              @ ../hid_transfer.c:302:17
	ldr	r0, [r1]
	movs	r2, #128
	orrs	r0, r2
	str	r0, [r1]
	ldr	r1, __arm_cp.5_2
	movs	r0, #0
	.loc	2 303 17                        @ ../hid_transfer.c:303:17
	str	r0, [r1]
	.loc	2 304 17                        @ ../hid_transfer.c:304:17
	b	.LBB5_18
.Ltmp78:
.LBB5_17:
	.loc	2 0 17 is_stmt 0                @ ../hid_transfer.c:0:17
	movs	r0, #0
.Ltmp79:
	.loc	2 311 17 is_stmt 1              @ ../hid_transfer.c:311:17
	bl	USBD_SetStall
	movs	r0, #1
	.loc	2 312 17                        @ ../hid_transfer.c:312:17
	bl	USBD_SetStall
	.loc	2 313 17                        @ ../hid_transfer.c:313:17
	b	.LBB5_18
.Ltmp80:
.LBB5_18:
	.loc	2 0 17 is_stmt 0                @ ../hid_transfer.c:0:17
	b	.LBB5_19
.LBB5_19:
	.loc	2 317 1 is_stmt 1               @ ../hid_transfer.c:317:1
	add	sp, #24
	pop	{r7, pc}
.Ltmp81:
	.p2align	2
@ %bb.20:
	.loc	2 0 1 is_stmt 0                 @ ../hid_transfer.c:0:1
__arm_cp.5_0:
	.long	g_u8Protocol
.Lcpi_end20:
	.size	__arm_cp.5_0, .Lcpi_end20-__arm_cp.5_0
__arm_cp.5_1:
	.long	1074529544                      @ 0x400c0508
.Lcpi_end21:
	.size	__arm_cp.5_1, .Lcpi_end21-__arm_cp.5_1
__arm_cp.5_2:
	.long	1074529540                      @ 0x400c0504
.Lcpi_end22:
	.size	__arm_cp.5_2, .Lcpi_end22-__arm_cp.5_2
__arm_cp.5_3:
	.long	g_u8Idle
.Lcpi_end23:
	.size	__arm_cp.5_3, .Lcpi_end23-__arm_cp.5_3
__arm_cp.5_4:
	.long	1074529560                      @ 0x400c0518
.Lcpi_end24:
	.size	__arm_cp.5_4, .Lcpi_end24-__arm_cp.5_4
__arm_cp.5_5:
	.long	1074529556                      @ 0x400c0514
.Lcpi_end25:
	.size	__arm_cp.5_5, .Lcpi_end25-__arm_cp.5_5
.Lfunc_end5:
	.size	HID_ClassRequest, .Lfunc_end5-HID_ClassRequest
	.cfi_endproc
	.cantunwind
	.fnend
                                        @ -- End function
	.section	.text.USBD_SetStall,"ax",%progbits
	.p2align	2                               @ -- Begin function USBD_SetStall
	.type	USBD_SetStall,%function
	.code	16                              @ @USBD_SetStall
	.thumb_func
USBD_SetStall:
.Lfunc_begin6:
	.file	4 "D:\\Software Tools\\Keil\\Test\\M251BSP-master\\M251BSP-master\\SampleCode\\StdDriver\\USBD_HID_Transfer\\KEIL" "../../../../Library/StdDriver/inc\\usbd.h"
	.loc	4 581 0 is_stmt 1               @ ../../../../Library/StdDriver/inc\usbd.h:581:0
	.fnstart
	.cfi_startproc
@ %bb.0:
	.pad	#16
	sub	sp, #16
	.cfi_def_cfa_offset 16
                                        @ kill: def $r1 killed $r0
	add	r1, sp, #12
	strb	r0, [r1]
	movs	r0, #0
.Ltmp82:
	.loc	4 584 12 prologue_end           @ ../../../../Library/StdDriver/inc\usbd.h:584:12
	str	r0, [sp, #8]
	.loc	4 584 10 is_stmt 0              @ ../../../../Library/StdDriver/inc\usbd.h:584:10
	b	.LBB6_1
.LBB6_1:                                @ =>This Inner Loop Header: Depth=1
.Ltmp83:
	.loc	4 584 19                        @ ../../../../Library/StdDriver/inc\usbd.h:584:19
	ldr	r0, [sp, #8]
.Ltmp84:
	.loc	4 584 5                         @ ../../../../Library/StdDriver/inc\usbd.h:584:5
	cmp	r0, #11
	bhi	.LBB6_6
	b	.LBB6_2
.LBB6_2:                                @   in Loop: Header=BB6_1 Depth=1
.Ltmp85:
	.loc	4 588 33 is_stmt 1              @ ../../../../Library/StdDriver/inc\usbd.h:588:33
	ldr	r0, [sp, #8]
	.loc	4 588 35 is_stmt 0              @ ../../../../Library/StdDriver/inc\usbd.h:588:35
	lsls	r0, r0, #4
	ldr	r1, __arm_cp.6_0
	.loc	4 588 41                        @ ../../../../Library/StdDriver/inc\usbd.h:588:41
	adds	r0, r0, r1
	.loc	4 588 20                        @ ../../../../Library/StdDriver/inc\usbd.h:588:20
	str	r0, [sp, #4]
	.loc	4 589 38 is_stmt 1              @ ../../../../Library/StdDriver/inc\usbd.h:589:38
	ldr	r0, [sp, #4]
	.loc	4 589 18 is_stmt 0              @ ../../../../Library/StdDriver/inc\usbd.h:589:18
	ldr	r0, [r0]
	.loc	4 589 16                        @ ../../../../Library/StdDriver/inc\usbd.h:589:16
	str	r0, [sp]
.Ltmp86:
	.loc	4 591 14 is_stmt 1              @ ../../../../Library/StdDriver/inc\usbd.h:591:14
	ldr	r0, [sp]
	movs	r1, #15
	.loc	4 591 21 is_stmt 0              @ ../../../../Library/StdDriver/inc\usbd.h:591:21
	ands	r0, r1
	add	r1, sp, #12
	.loc	4 591 33                        @ ../../../../Library/StdDriver/inc\usbd.h:591:33
	ldrb	r1, [r1]
.Ltmp87:
	.loc	4 591 13                        @ ../../../../Library/StdDriver/inc\usbd.h:591:13
	cmp	r0, r1
	bne	.LBB6_4
	b	.LBB6_3
.LBB6_3:
.Ltmp88:
	.loc	4 593 37 is_stmt 1              @ ../../../../Library/StdDriver/inc\usbd.h:593:37
	ldr	r0, [sp, #8]
	.loc	4 593 39 is_stmt 0              @ ../../../../Library/StdDriver/inc\usbd.h:593:39
	lsls	r0, r0, #4
	ldr	r1, __arm_cp.6_1
	.loc	4 593 45                        @ ../../../../Library/StdDriver/inc\usbd.h:593:45
	adds	r0, r0, r1
	.loc	4 593 24                        @ ../../../../Library/StdDriver/inc\usbd.h:593:24
	str	r0, [sp, #4]
	.loc	4 594 42 is_stmt 1              @ ../../../../Library/StdDriver/inc\usbd.h:594:42
	ldr	r0, [sp, #4]
	.loc	4 594 22 is_stmt 0              @ ../../../../Library/StdDriver/inc\usbd.h:594:22
	ldr	r0, [r0]
	.loc	4 594 20                        @ ../../../../Library/StdDriver/inc\usbd.h:594:20
	str	r0, [sp]
	.loc	4 596 49 is_stmt 1              @ ../../../../Library/StdDriver/inc\usbd.h:596:49
	ldr	r0, [sp]
	movs	r1, #2
	.loc	4 596 56 is_stmt 0              @ ../../../../Library/StdDriver/inc\usbd.h:596:56
	orrs	r0, r1
	.loc	4 596 33                        @ ../../../../Library/StdDriver/inc\usbd.h:596:33
	ldr	r1, [sp, #4]
	.loc	4 596 46                        @ ../../../../Library/StdDriver/inc\usbd.h:596:46
	str	r0, [r1]
	.loc	4 597 13 is_stmt 1              @ ../../../../Library/StdDriver/inc\usbd.h:597:13
	b	.LBB6_6
.Ltmp89:
.LBB6_4:                                @   in Loop: Header=BB6_1 Depth=1
	.loc	4 599 5                         @ ../../../../Library/StdDriver/inc\usbd.h:599:5
	b	.LBB6_5
.Ltmp90:
.LBB6_5:                                @   in Loop: Header=BB6_1 Depth=1
	.loc	4 584 37                        @ ../../../../Library/StdDriver/inc\usbd.h:584:37
	ldr	r0, [sp, #8]
	adds	r0, r0, #1
	str	r0, [sp, #8]
	.loc	4 584 5 is_stmt 0               @ ../../../../Library/StdDriver/inc\usbd.h:584:5
	b	.LBB6_1
.Ltmp91:
.LBB6_6:
	.loc	4 600 1 is_stmt 1               @ ../../../../Library/StdDriver/inc\usbd.h:600:1
	add	sp, #16
	bx	lr
.Ltmp92:
	.p2align	2
@ %bb.7:
	.loc	4 0 1 is_stmt 0                 @ ../../../../Library/StdDriver/inc\usbd.h:0:1
__arm_cp.6_0:
	.long	1074529544                      @ 0x400c0508
.Lcpi_end26:
	.size	__arm_cp.6_0, .Lcpi_end26-__arm_cp.6_0
__arm_cp.6_1:
	.long	1074529548                      @ 0x400c050c
.Lcpi_end27:
	.size	__arm_cp.6_1, .Lcpi_end27-__arm_cp.6_1
.Lfunc_end6:
	.size	USBD_SetStall, .Lfunc_end6-USBD_SetStall
	.cfi_endproc
	.cantunwind
	.fnend
                                        @ -- End function
	.section	.text.Veri_Gonder,"ax",%progbits
	.hidden	Veri_Gonder                     @ -- Begin function Veri_Gonder
	.globl	Veri_Gonder
	.p2align	2
	.type	Veri_Gonder,%function
	.code	16                              @ @Veri_Gonder
	.thumb_func
Veri_Gonder:
.Lfunc_begin7:
	.loc	2 329 0 is_stmt 1               @ ../hid_transfer.c:329:0
	.fnstart
	.cfi_startproc
@ %bb.0:
	.save	{r7, lr}
	push	{r7, lr}
	.cfi_def_cfa_offset 8
	.cfi_offset lr, -4
	.cfi_offset r7, -8
	.pad	#72
	sub	sp, #72
	.cfi_def_cfa_offset 80
	add	r1, sp, #8
	movs	r0, #12
.Ltmp93:
	.loc	2 331 26 prologue_end           @ ../hid_transfer.c:331:26
	strb	r0, [r1]
	movs	r0, #13
	.loc	2 332 23                        @ ../hid_transfer.c:332:23
	strb	r0, [r1, #1]
	movs	r0, #14
	.loc	2 333 26                        @ ../hid_transfer.c:333:26
	strb	r0, [r1, #2]
	movs	r0, #15
	.loc	2 334 22                        @ ../hid_transfer.c:334:22
	strb	r0, [r1, #3]
	ldr	r0, __arm_cp.7_0
	.loc	2 335 50                        @ ../hid_transfer.c:335:50
	ldr	r0, [r0]
	ldr	r2, __arm_cp.7_1
	.loc	2 335 48 is_stmt 0              @ ../hid_transfer.c:335:48
	adds	r0, r0, r2
	movs	r2, #64
	.loc	2 335 9                         @ ../hid_transfer.c:335:9
	str	r2, [sp, #4]                    @ 4-byte Spill
	bl	USBD_MemCopy
	ldr	r0, [sp, #4]                    @ 4-byte Reload
	ldr	r1, __arm_cp.7_2
	.loc	2 336 9 is_stmt 1               @ ../hid_transfer.c:336:9
	str	r0, [r1]
	.loc	2 340 1                         @ ../hid_transfer.c:340:1
	add	sp, #72
	pop	{r7, pc}
.Ltmp94:
	.p2align	2
@ %bb.1:
	.loc	2 0 1 is_stmt 0                 @ ../hid_transfer.c:0:1
__arm_cp.7_0:
	.long	1074529568                      @ 0x400c0520
.Lcpi_end28:
	.size	__arm_cp.7_0, .Lcpi_end28-__arm_cp.7_0
__arm_cp.7_1:
	.long	1074528512                      @ 0x400c0100
.Lcpi_end29:
	.size	__arm_cp.7_1, .Lcpi_end29-__arm_cp.7_1
__arm_cp.7_2:
	.long	1074529572                      @ 0x400c0524
.Lcpi_end30:
	.size	__arm_cp.7_2, .Lcpi_end30-__arm_cp.7_2
.Lfunc_end7:
	.size	Veri_Gonder, .Lfunc_end7-Veri_Gonder
	.cfi_endproc
	.cantunwind
	.fnend
                                        @ -- End function
	.section	.text.USBD_MemCopy,"ax",%progbits
	.p2align	1                               @ -- Begin function USBD_MemCopy
	.type	USBD_MemCopy,%function
	.code	16                              @ @USBD_MemCopy
	.thumb_func
USBD_MemCopy:
.Lfunc_begin8:
	.loc	4 565 0 is_stmt 1               @ ../../../../Library/StdDriver/inc\usbd.h:565:0
	.fnstart
	.cfi_startproc
@ %bb.0:
	.pad	#12
	sub	sp, #12
	.cfi_def_cfa_offset 12
	str	r0, [sp, #8]
	str	r1, [sp, #4]
	str	r2, [sp]
.Ltmp95:
	.loc	4 566 5 prologue_end            @ ../../../../Library/StdDriver/inc\usbd.h:566:5
	b	.LBB8_1
.LBB8_1:                                @ =>This Inner Loop Header: Depth=1
	.loc	4 566 16 is_stmt 0              @ ../../../../Library/StdDriver/inc\usbd.h:566:16
	ldr	r0, [sp]
	subs	r1, r0, #1
	str	r1, [sp]
	.loc	4 566 5                         @ ../../../../Library/StdDriver/inc\usbd.h:566:5
	cbz	r0, .LBB8_3
	b	.LBB8_2
.LBB8_2:                                @   in Loop: Header=BB8_1 Depth=1
	.loc	4 566 34                        @ ../../../../Library/StdDriver/inc\usbd.h:566:34
	ldr	r0, [sp, #4]
	adds	r1, r0, #1
	str	r1, [sp, #4]
	.loc	4 566 30                        @ ../../../../Library/StdDriver/inc\usbd.h:566:30
	ldrb	r0, [r0]
	.loc	4 566 25                        @ ../../../../Library/StdDriver/inc\usbd.h:566:25
	ldr	r1, [sp, #8]
	adds	r2, r1, #1
	str	r2, [sp, #8]
	.loc	4 566 28                        @ ../../../../Library/StdDriver/inc\usbd.h:566:28
	strb	r0, [r1]
	.loc	4 566 5                         @ ../../../../Library/StdDriver/inc\usbd.h:566:5
	b	.LBB8_1
.LBB8_3:
	.loc	4 567 1 is_stmt 1               @ ../../../../Library/StdDriver/inc\usbd.h:567:1
	add	sp, #12
	bx	lr
.Ltmp96:
.Lfunc_end8:
	.size	USBD_MemCopy, .Lfunc_end8-USBD_MemCopy
	.cfi_endproc
	.cantunwind
	.fnend
                                        @ -- End function
	.hidden	g_u8Suspend                     @ @g_u8Suspend
	.type	g_u8Suspend,%object
	.section	.bss.g_u8Suspend,"aw",%nobits
	.globl	g_u8Suspend
g_u8Suspend:
	.byte	0                               @ 0x0
	.size	g_u8Suspend, 1

	.hidden	g_u8Idle                        @ @g_u8Idle
	.type	g_u8Idle,%object
	.section	.bss.g_u8Idle,"aw",%nobits
	.globl	g_u8Idle
g_u8Idle:
	.byte	0                               @ 0x0
	.size	g_u8Idle, 1

	.hidden	g_u8Protocol                    @ @g_u8Protocol
	.type	g_u8Protocol,%object
	.section	.bss.g_u8Protocol,"aw",%nobits
	.globl	g_u8Protocol
g_u8Protocol:
	.byte	0                               @ 0x0
	.size	g_u8Protocol, 1

	.section	".note.GNU-stack","",%progbits
	.eabi_attribute	30, 6	@ Tag_ABI_optimization_goals
	.ARM_attribute	16, 1	@ Tag_AV_eba