	.text
	.syntax unified
	.eabi_attribute	67, "2.09"	@ Tag_conformance
	.cpu	cortex-m23
	.eabi_attribute	6, 16	@ Tag_CPU_arch
	.eabi_attribute	7, 77	@ Tag_CPU_arch_profile
	.eabi_attribute	8, 0	@ Tag_ARM_ISA_use
	.eabi_attribute	9, 3	@ Tag_THUMB_ISA_use
	.eabi_attribute	34, 0	@ Tag_CPU_unaligned_access
	.eabi_attribute	17, 1	@ Tag_ABI_PCS_GOT_use
	.eabi_attribute	20, 2	@ Tag_ABI_FP_denormal
	.eabi_attribute	21, 0	@ Tag_ABI_FP_exceptions
	.eabi_attribute	23, 1	@ Tag_ABI_FP_number_model
	.eabi_attribute	24, 1	@ Tag_ABI_align_needed
	.eabi_attribute	25, 1	@ Tag_ABI_align_preserved
	.eabi_attribute	38, 1	@ Tag_ABI_FP_16bit_format
	.eabi_attribute	18, 2	@ Tag_ABI_PCS_wchar_t
	.eabi_attribute	26, 1	@ Tag_ABI_enum_size
	.eabi_attribute	14, 0	@ Tag_ABI_PCS_R9_use
	.file	"main.c"
	.file	1 "D:\\Software Tools\\Keil\\Test\\M251BSP-master\\M251BSP-master\\SampleCode\\StdDriver\\USBD_HID_Transfer\\KEIL" "../../../../Library/Device/Nuvoton/M251/Include/M251.h"
	.file	2 "C:\\Keil_v5\\ARM\\ARMCLANG\\Bin\\..\\include" "stdint.h"
	.file	3 "D:\\Software Tools\\Keil\\Test\\M251BSP-master\\M251BSP-master\\SampleCode\\StdDriver\\USBD_HID_Transfer\\KEIL" "../../../../Library/Device/Nuvoton/M251/Include/usbd_reg.h"
	.file	4 "D:\\Software Tools\\Keil\\Test\\M251BSP-master\\M251BSP-master\\SampleCode\\StdDriver\\USBD_HID_Transfer\\KEIL" "../../../../Library/Device/Nuvoton/M251/Include/clk_reg.h"
	.file	5 "D:\\Software Tools\\Keil\\Test\\M251BSP-master\\M251BSP-master\\SampleCode\\StdDriver\\USBD_HID_Transfer\\KEIL" "../../../../Library/Device/Nuvoton/M251/Include/uart_reg.h"
	.file	6 "D:\\Software Tools\\Keil\\Test\\M251BSP-master\\M251BSP-master\\SampleCode\\StdDriver\\USBD_HID_Transfer\\KEIL" "../../../../Library/Device/Nuvoton/M251/Include/sys_reg.h"
	.file	7 "D:\\Software Tools\\Keil\\Test\\M251BSP-master\\M251BSP-master\\SampleCode\\StdDriver\\USBD_HID_Transfer\\KEIL" "../../../../Library/CMSIS/Include\\core_cm23.h"
	.section	.text.SYS_Init,"ax",%progbits
	.hidden	SYS_Init                        @ -- Begin function SYS_Init
	.globl	SYS_Init
	.p2align	2
	.type	SYS_Init,%function
	.code	16                              @ @SYS_Init
	.thumb_func
SYS_Init:
.Lfunc_begin0:
	.file	8 "D:\\Software Tools\\Keil\\Test\\M251BSP-master\\M251BSP-master\\SampleCode\\StdDriver\\USBD_HID_Transfer\\KEIL" "../main.c"
	.loc	8 20 0                          @ ../main.c:20:0
	.fnstart
	.cfi_sections .debug_frame
	.cfi_startproc
@ %bb.0:
	.save	{r7, lr}
	push	{r7, lr}
	.cfi_def_cfa_offset 8
	.cfi_offset lr, -4
	.cfi_offset r7, -8
	.pad	#16
	sub	sp, #16
	.cfi_def_cfa_offset 24
	movs	r0, #4
.Ltmp0:
	.loc	8 27 5 prologue_end             @ ../main.c:27:5
	bl	CLK_EnableXtalRC
	movs	r0, #16
	.loc	8 30 5                          @ ../main.c:30:5
	bl	CLK_WaitClockReady
	movs	r0, #7
	movs	r1, #0
	.loc	8 34 5                          @ ../main.c:34:5
	str	r1, [sp, #12]                   @ 4-byte Spill
	bl	CLK_SetHCLK
	ldr	r2, [sp, #12]                   @ 4-byte Reload
	ldr	r0, __arm_cp.0_0
	.loc	8 37 5                          @ ../main.c:37:5
	str	r0, [sp, #4]                    @ 4-byte Spill
	mov	r1, r2
	bl	CLK_SetModuleClock
	ldr	r0, __arm_cp.0_1
	.loc	8 56 5                          @ ../main.c:56:5
	str	r0, [sp, #8]                    @ 4-byte Spill
	bl	CLK_EnableModuleClock
	ldr	r0, [sp, #4]                    @ 4-byte Reload
	.loc	8 57 5                          @ ../main.c:57:5
	bl	CLK_EnableModuleClock
	ldr	r0, [sp, #8]                    @ 4-byte Reload
	ldr	r2, [sp, #12]                   @ 4-byte Reload
	movs	r1, #3
	lsls	r1, r1, #24
	.loc	8 60 5                          @ ../main.c:60:5
	bl	CLK_SetModuleClock
	.loc	8 65 5                          @ ../main.c:65:5
	bl	Uart0DefaultMPF
	.loc	8 66 1                          @ ../main.c:66:1
	add	sp, #16
	pop	{r7, pc}
.Ltmp1:
	.p2align	2
@ %bb.1:
	.loc	8 0 1 is_stmt 0                 @ ../main.c:0:1
__arm_cp.0_0:
	.long	1115700379                      @ 0x42803c9b
.Lcpi_end0:
	.size	__arm_cp.0_0, .Lcpi_end0-__arm_cp.0_0
__arm_cp.0_1:
	.long	1602239760                      @ 0x5f803d10
.Lcpi_end1:
	.size	__arm_cp.0_1, .Lcpi_end1-__arm_cp.0_1
.Lfunc_end0:
	.size	SYS_Init, .Lfunc_end0-SYS_Init
	.cfi_endproc
	.cantunwind
	.fnend
                                        @ -- End function
	.section	.text.PowerDown,"ax",%progbits
	.hidden	PowerDown                       @ -- Begin function PowerDown
	.globl	PowerDown
	.p2align	2
	.type	PowerDown,%function
	.code	16                              @ @PowerDown
	.thumb_func
PowerDown:
.Lfunc_begin1:
	.loc	8 69 0 is_stmt 1                @ ../main.c:69:0
	.fnstart
	.cfi_startproc
@ %bb.0:
	.save	{r7, lr}
	push	{r7, lr}
	.cfi_def_cfa_offset 8
	.cfi_offset lr, -4
	.cfi_offset r7, -8
.Ltmp2:
	.loc	8 71 5 prologue_end             @ ../main.c:71:5
	bl	SYS_UnlockReg
	.loc	8 73 5                          @ ../main.c:73:5
	ldr	r0, __arm_cp.1_0
	bl	printf
	.loc	8 75 5                          @ ../main.c:75:5
	b	.LBB1_1
.LBB1_1:                                @ =>This Inner Loop Header: Depth=1
	.loc	8 75 13 is_stmt 0               @ ../main.c:75:13
	bl	IsDebugFifoEmpty
	.loc	8 75 5                          @ ../main.c:75:5
	cbnz	r0, .LBB1_3
	b	.LBB1_2
.LBB1_2:                                @   in Loop: Header=BB1_1 Depth=1
	b	.LBB1_1
.LBB1_3:
	.loc	8 0 5                           @ ../main.c:0:5
	ldr	r1, __arm_cp.1_1
	.loc	8 78 5 is_stmt 1                @ ../main.c:78:5
	ldr	r0, [r1]
	movw	r2, #256
	orrs	r0, r2
	str	r0, [r1]
	.loc	8 80 5                          @ ../main.c:80:5
	bl	CLK_PowerDown
	ldr	r0, __arm_cp.1_2
.Ltmp3:
	.loc	8 83 14                         @ ../main.c:83:14
	ldr	r0, [r0]
.Ltmp4:
	.loc	8 83 9 is_stmt 0                @ ../main.c:83:9
	lsls	r0, r0, #24
	cmp	r0, #0
	bpl	.LBB1_5
	b	.LBB1_4
.LBB1_4:
	.loc	8 0 9                           @ ../main.c:0:9
	ldr	r1, __arm_cp.1_2
.Ltmp5:
	.loc	8 84 21 is_stmt 1               @ ../main.c:84:21
	ldr	r0, [r1]
	movs	r2, #128
	eors	r0, r2
	str	r0, [r1]
	.loc	8 84 9 is_stmt 0                @ ../main.c:84:9
	b	.LBB1_5
.Ltmp6:
.LBB1_5:
	.loc	8 86 5 is_stmt 1                @ ../main.c:86:5
	ldr	r0, __arm_cp.1_3
	bl	printf
	.loc	8 89 5                          @ ../main.c:89:5
	bl	SYS_LockReg
	.loc	8 90 1                          @ ../main.c:90:1
	pop	{r7, pc}
.Ltmp7:
	.p2align	2
@ %bb.6:
	.loc	8 0 1 is_stmt 0                 @ ../main.c:0:1
__arm_cp.1_0:
	.long	.L.str
.Lcpi_end2:
	.size	__arm_cp.1_0, .Lcpi_end2-__arm_cp.1_0
__arm_cp.1_1:
	.long	1074528256                      @ 0x400c0000
.Lcpi_end3:
	.size	__arm_cp.1_1, .Lcpi_end3-__arm_cp.1_1
__arm_cp.1_2:
	.long	1073742336                      @ 0x40000200
.Lcpi_end4:
	.size	__arm_cp.1_2, .Lcpi_end4-__arm_cp.1_2
__arm_cp.1_3:
	.long	.L.str.1
.Lcpi_end5:
	.size	__arm_cp.1_3, .Lcpi_end5-__arm_cp.1_3
.Lfunc_end1:
	.size	PowerDown, .Lfunc_end1-PowerDown
	.cfi_endproc
	.cantunwind
	.fnend
                                        @ -- End function
	.section	.text.SYS_UnlockReg,"ax",%progbits
	.p2align	2                               @ -- Begin function SYS_UnlockReg
	.type	SYS_UnlockReg,%function
	.code	16                              @ @SYS_UnlockReg
	.thumb_func
SYS_UnlockReg:
.Lfunc_begin2:
	.file	9 "D:\\Software Tools\\Keil\\Test\\M251BSP-master\\M251BSP-master\\SampleCode\\StdDriver\\USBD_HID_Transfer\\KEIL" "../../../../Library/StdDriver/inc\\sys.h"
	.loc	9 1350 0 is_stmt 1              @ ../../../../Library/StdDriver/inc\sys.h:1350:0
	.fnstart
	.cfi_startproc
@ %bb.0:
	.loc	9 1351 5 prologue_end           @ ../../../../Library/StdDriver/inc\sys.h:1351:5
	b	.LBB2_1
.LBB2_1:                                @ =>This Inner Loop Header: Depth=1
	.loc	9 0 5 is_stmt 0                 @ ../../../../Library/StdDriver/inc\sys.h:0:5
	ldr	r1, __arm_cp.2_0
	movs	r0, #89
.Ltmp8:
	.loc	9 1353 22 is_stmt 1             @ ../../../../Library/StdDriver/inc\sys.h:1353:22
	str	r0, [r1]
	movs	r0, #22
	.loc	9 1354 22                       @ ../../../../Library/StdDriver/inc\sys.h:1354:22
	str	r0, [r1]
	movs	r0, #136
	.loc	9 1355 22                       @ ../../../../Library/StdDriver/inc\sys.h:1355:22
	str	r0, [r1]
	.loc	9 1356 5                        @ ../../../../Library/StdDriver/inc\sys.h:1356:5
	b	.LBB2_2
.Ltmp9:
.LBB2_2:                                @   in Loop: Header=BB2_1 Depth=1
	.loc	9 0 5 is_stmt 0                 @ ../../../../Library/StdDriver/inc\sys.h:0:5
	ldr	r0, __arm_cp.2_0
	.loc	9 1356 19                       @ ../../../../Library/StdDriver/inc\sys.h:1356:19
	ldr	r0, [r0]
.Ltmp10:
	.loc	9 1356 5                        @ ../../../../Library/StdDriver/inc\sys.h:1356:5
	cmp	r0, #0
	beq	.LBB2_1
	b	.LBB2_3
.Ltmp11:
.LBB2_3:
	.loc	9 1357 1 is_stmt 1              @ ../../../../Library/StdDriver/inc\sys.h:1357:1
	bx	lr
.Ltmp12:
	.p2align	2
@ %bb.4:
	.loc	9 0 1 is_stmt 0                 @ ../../../../Library/StdDriver/inc\sys.h:0:1
__arm_cp.2_0:
	.long	1073742080                      @ 0x40000100
.Lcpi_end6:
	.size	__arm_cp.2_0, .Lcpi_end6-__arm_cp.2_0
.Lfunc_end2:
	.size	SYS_UnlockReg, .Lfunc_end2-SYS_UnlockReg
	.cfi_endproc
	.cantunwind
	.fnend
                                        @ -- End function
	.section	.text.SYS_LockReg,"ax",%progbits
	.p2align	2                               @ -- Begin function SYS_LockReg
	.type	SYS_LockReg,%function
	.code	16                              @ @SYS_LockReg
	.thumb_func
SYS_LockReg:
.Lfunc_begin3:
	.loc	9 1367 0 is_stmt 1              @ ../../../../Library/StdDriver/inc\sys.h:1367:0
	.fnstart
	.cfi_startproc
@ %bb.0:
	ldr	r1, __arm_cp.3_0
	movs	r0, #0
.Ltmp13:
	.loc	9 1368 18 prologue_end          @ ../../../../Library/StdDriver/inc\sys.h:1368:18
	str	r0, [r1]
	.loc	9 1369 1                        @ ../../../../Library/StdDriver/inc\sys.h:1369:1
	bx	lr
.Ltmp14:
	.p2align	2
@ %bb.1:
	.loc	9 0 1 is_stmt 0                 @ ../../../../Library/StdDriver/inc\sys.h:0:1
__arm_cp.3_0:
	.long	1073742080                      @ 0x40000100
.Lcpi_end7:
	.size	__arm_cp.3_0, .Lcpi_end7-__arm_cp.3_0
.Lfunc_end3:
	.size	SYS_LockReg, .Lfunc_end3-SYS_LockReg
	.cfi_endproc
	.cantunwind
	.fnend
                                        @ -- End function
	.section	.text.main,"ax",%progbits
	.hidden	main                            @ -- Begin function main
	.globl	main
	.p2align	2
	.type	main,%function
	.code	16                              @ @main
	.thumb_func
main:
.Lfunc_begin4:
	.loc	8 96 0 is_stmt 1                @ ../main.c:96:0
	.fnstart
	.cfi_startproc
@ %bb.0:
	.save	{r7, lr}
	push	{r7, lr}
	.cfi_def_cfa_offset 8
	.cfi_offset lr, -4
	.cfi_offset r7, -8
	.pad	#16
	sub	sp, #16
	.cfi_def_cfa_offset 24
	movs	r0, #0
	str	r0, [sp, #4]                    @ 4-byte Spill
	str	r0, [sp, #12]
.Ltmp15:
	.loc	8 101 3 prologue_end            @ ../main.c:101:3
	bl	SYS_UnlockReg
	.loc	8 102 3                         @ ../main.c:102:3
	bl	SYS_Init
	movs	r0, #225
	lsls	r1, r0, #9
	ldr	r0, __arm_cp.4_0
	.loc	8 103 3                         @ ../main.c:103:3
	bl	UART_Open
	ldr	r2, [sp, #4]                    @ 4-byte Reload
	.loc	8 105 2                         @ ../main.c:105:2
	ldr	r0, __arm_cp.4_1
	ldr	r1, __arm_cp.4_2
	bl	USBD_Open
	.loc	8 106 3                         @ ../main.c:106:3
	bl	HID_Init
	.loc	8 107 2                         @ ../main.c:107:2
	bl	USBD_Start
	movs	r0, #53
	.loc	8 108 3                         @ ../main.c:108:3
	bl	__NVIC_EnableIRQ
	ldr	r0, __arm_cp.4_3
	.loc	8 111 19                        @ ../main.c:111:19
	ldr	r0, [r0]
	.loc	8 111 17 is_stmt 0              @ ../main.c:111:17
	str	r0, [sp, #8]
	ldr	r1, __arm_cp.4_4
	movs	r0, #16
	.loc	8 112 5 is_stmt 1               @ ../main.c:112:5
	str	r0, [r1]
	.loc	8 115 5                         @ ../main.c:115:5
	b	.LBB4_1
.LBB4_1:                                @ =>This Inner Loop Header: Depth=1
	.loc	8 0 5 is_stmt 0                 @ ../main.c:0:5
	movs	r0, #1
	lsls	r0, r0, #30
	.loc	8 115 17                        @ ../main.c:115:17
	ldr	r0, [r0]
	.loc	8 115 5                         @ ../main.c:115:5
	cbz	r0, .LBB4_11
	b	.LBB4_2
.LBB4_2:                                @   in Loop: Header=BB4_1 Depth=1
	.loc	8 0 5                           @ ../main.c:0:5
	ldr	r0, __arm_cp.4_5
.Ltmp16:
	.loc	8 121 19 is_stmt 1              @ ../main.c:121:19
	ldr	r0, [r0]
	movs	r1, #3
	.loc	8 121 31 is_stmt 0              @ ../main.c:121:31
	ands	r0, r1
.Ltmp17:
	.loc	8 121 13                        @ ../main.c:121:13
	cmp	r0, #1
	beq	.LBB4_6
	b	.LBB4_3
.LBB4_3:                                @   in Loop: Header=BB4_1 Depth=1
	.loc	8 0 13                          @ ../main.c:0:13
	ldr	r0, __arm_cp.4_4
.Ltmp18:
	.loc	8 124 23 is_stmt 1              @ ../main.c:124:23
	ldr	r0, [r0]
.Ltmp19:
	.loc	8 124 17 is_stmt 0              @ ../main.c:124:17
	lsls	r0, r0, #27
	cmp	r0, #0
	bpl	.LBB4_5
	b	.LBB4_4
.LBB4_4:                                @   in Loop: Header=BB4_1 Depth=1
	.loc	8 0 17                          @ ../main.c:0:17
	ldr	r1, __arm_cp.4_4
	movs	r0, #16
.Ltmp20:
	.loc	8 127 17 is_stmt 1              @ ../main.c:127:17
	str	r0, [r1]
	ldr	r1, __arm_cp.4_5
	ldr	r0, __arm_cp.4_6
	.loc	8 134 34                        @ ../main.c:134:34
	str	r0, [r1]
	.loc	8 139 13                        @ ../main.c:139:13
	b	.LBB4_5
.Ltmp21:
.LBB4_5:                                @   in Loop: Header=BB4_1 Depth=1
	.loc	8 140 9                         @ ../main.c:140:9
	b	.LBB4_6
.Ltmp22:
.LBB4_6:                                @   in Loop: Header=BB4_1 Depth=1
	.loc	8 0 9 is_stmt 0                 @ ../main.c:0:9
	ldr	r0, __arm_cp.4_7
.Ltmp23:
	.loc	8 143 18 is_stmt 1              @ ../main.c:143:18
	ldr	r0, [r0]
.Ltmp24:
	.loc	8 143 13 is_stmt 0              @ ../main.c:143:13
	lsls	r0, r0, #29
	lsrs	r0, r0, #30
	cbz	r0, .LBB4_8
	b	.LBB4_7
.LBB4_7:                                @   in Loop: Header=BB4_1 Depth=1
.Ltmp25:
	.loc	8 146 30 is_stmt 1              @ ../main.c:146:30
	ldr	r0, [sp, #8]
	ldr	r1, __arm_cp.4_3
	.loc	8 146 28 is_stmt 0              @ ../main.c:146:28
	str	r0, [r1]
	ldr	r1, __arm_cp.4_5
	movs	r0, #0
	.loc	8 149 30 is_stmt 1              @ ../main.c:149:30
	str	r0, [r1]
	ldr	r1, __arm_cp.4_7
	movs	r0, #6
	.loc	8 152 30                        @ ../main.c:152:30
	str	r0, [r1]
	ldr	r1, __arm_cp.4_4
	movs	r0, #16
	.loc	8 155 13                        @ ../main.c:155:13
	str	r0, [r1]
	.loc	8 156 9                         @ ../main.c:156:9
	b	.LBB4_8
.Ltmp26:
.LBB4_8:                                @   in Loop: Header=BB4_1 Depth=1
	.loc	8 161 13                        @ ../main.c:161:13
	ldr	r0, __arm_cp.4_8
	ldrb	r0, [r0]
.Ltmp27:
	.loc	8 161 13 is_stmt 0              @ ../main.c:161:13
	cbz	r0, .LBB4_10
	b	.LBB4_9
.LBB4_9:                                @   in Loop: Header=BB4_1 Depth=1
.Ltmp28:
	.loc	8 162 13 is_stmt 1              @ ../main.c:162:13
	bl	PowerDown
	b	.LBB4_10
.Ltmp29:
.LBB4_10:                               @   in Loop: Header=BB4_1 Depth=1
	.loc	8 115 5                         @ ../main.c:115:5
	b	.LBB4_1
.LBB4_11:
	.loc	8 164 1                         @ ../main.c:164:1
	ldr	r0, [sp, #12]
	add	sp, #16
	pop	{r7, pc}
.Ltmp30:
	.p2align	2
@ %bb.12:
	.loc	8 0 1 is_stmt 0                 @ ../main.c:0:1
__arm_cp.4_0:
	.long	1074200576                      @ 0x40070000
.Lcpi_end8:
	.size	__arm_cp.4_0, .Lcpi_end8-__arm_cp.4_0
__arm_cp.4_1:
	.long	gsInfo
.Lcpi_end9:
	.size	__arm_cp.4_1, .Lcpi_end9-__arm_cp.4_1
__arm_cp.4_2:
	.long	HID_ClassRequest
.Lcpi_end10:
	.size	__arm_cp.4_2, .Lcpi_end10-__arm_cp.4_2
__arm_cp.4_3:
	.long	1073742104                      @ 0x40000118
.Lcpi_end11:
	.size	__arm_cp.4_3, .Lcpi_end11-__arm_cp.4_3
__arm_cp.4_4:
	.long	1074528260                      @ 0x400c0004
.Lcpi_end12:
	.size	__arm_cp.4_4, .Lcpi_end12-__arm_cp.4_4
__arm_cp.4_5:
	.long	1073742064                      @ 0x400000f0
.Lcpi_end13:
	.size	__arm_cp.4_5, .Lcpi_end13-__arm_cp.4_5
__arm_cp.4_6:
	.long	656897                          @ 0xa0601
.Lcpi_end14:
	.size	__arm_cp.4_6, .Lcpi_end14-__arm_cp.4_6
__arm_cp.4_7:
	.long	1073742072                      @ 0x400000f8
.Lcpi_end15:
	.size	__arm_cp.4_7, .Lcpi_end15-__arm_cp.4_7
__arm_cp.4_8:
	.long	g_u8Suspend
.Lcpi_end16:
	.size	__arm_cp.4_8, .Lcpi_end16-__arm_cp.4_8
.Lfunc_end4:
	.size	main, .Lfunc_end4-main
	.cfi_endproc
	.cantunwind
	.fnend
                                        @ -- End function
	.section	.text.__NVIC_EnableIRQ,"ax",%progbits
	.p2align	2                               @ -- Begin function __NVIC_EnableIRQ
	.type	__NVIC_EnableIRQ,%function
	.code	16                              @ @__NVIC_EnableIRQ
	.thumb_func
__NVIC_EnableIRQ:
.Lfunc_begin5:
	.loc	7 1276 0 is_stmt 1              @ ../../../../Library/CMSIS/Include\core_cm23.h:1276:0
	.fnstart
	.cfi_startproc
@ %bb.0:
	.pad	#4
	sub	sp, #4
	.cfi_def_cfa_offset 4
	mov	r1, r0
                                        @ kill: def $r0 killed $r1
	mov	r0, sp
	strb	r1, [r0]
.Ltmp31:
	.loc	7 1277 17 prologue_end          @ ../../../../Library/CMSIS/Include\core_cm23.h:1277:17
	ldrb	r0, [r0]
	sxtb	r0, r0
.Ltmp32:
	.loc	7 1277 7 is_stmt 0              @ ../../../../Library/CMSIS/Include\core_cm23.h:1277:7
	cmp	r0, #0
	bmi	.LBB5_2
	b	.LBB5_1
.LBB5_1:
	.loc	7 0 7                           @ ../../../../Library/CMSIS/Include\core_cm23.h:0:7
	mov	r0, sp
.Ltmp33:
	.loc	7 1279 93 is_stmt 1             @ ../../../../Library/CMSIS/Include\core_cm23.h:1279:93
	ldrb	r0, [r0]
	sxtb	r1, r0
	movs	r0, #31
	.loc	7 1279 99 is_stmt 0             @ ../../../../Library/CMSIS/Include\core_cm23.h:1279:99
	mov	r2, r1
	ands	r2, r0
	movs	r0, #1
	.loc	7 1279 69                       @ ../../../../Library/CMSIS/Include\core_cm23.h:1279:69
	lsls	r0, r2
	.loc	7 1279 43                       @ ../../../../Library/CMSIS/Include\core_cm23.h:1279:43
	lsrs	r1, r1, #5
	lsls	r1, r1, #2
	ldr	r2, __arm_cp.5_0
	.loc	7 1279 52                       @ ../../../../Library/CMSIS/Include\core_cm23.h:1279:52
	str	r0, [r1, r2]
	.loc	7 1280 3 is_stmt 1              @ ../../../../Library/CMSIS/Include\core_cm23.h:1280:3
	b	.LBB5_2
.Ltmp34:
.LBB5_2:
	.loc	7 1281 1                        @ ../../../../Library/CMSIS/Include\core_cm23.h:1281:1
	add	sp, #4
	bx	lr
.Ltmp35:
	.p2align	2
@ %bb.3:
	.loc	7 0 1 is_stmt 0                 @ ../../../../Library/CMSIS/Include\core_cm23.h:0:1
__arm_cp.5_0:
	.long	3758153984                      @ 0xe000e100
.Lcpi_end17:
	.size	__arm_cp.5_0, .Lcpi_end17-__arm_cp.5_0
.Lfunc_end5:
	.size	__NVIC_EnableIRQ, .Lfunc_end5-__NVIC_EnableIRQ
	.cfi_endproc
	.cantunwind
	.fnend
                                        @ -- End function
	.type	.L.str,%object                  @ @.str
	.section	.rodata.str1.1,"aMS",%progbits,1
.L.str:
	.asciz	"Enter power down ...\n"
	.size	.L.str, 22

	.type	.L.str.1,%object                @ @.str.1
.L.str.1:
	.asciz	"device wakeup!\n"
	.size	.L.str.1, 16

	.type	__ARM_use_no_argv,%object       @ @__ARM_use_no_argv
	.section	.ARM.use_no_argv,"aw",%progbits
	.globl	__ARM_use_no_argv
	.p2align	2
__ARM_use_no_argv:
	.long	1                               @ 0x1
	.size	__ARM_use_no_argv, 4

	.globl	__ARM_use_no_argv
	.section	".note.GNU-stack","",%progbits
	.eabi_attribute	30, 6	@ Tag_ABI_optimization_goals
	.ARM_attribute	16, 1	@ Tag_AV_eba