	.text
	.syntax unified
	.eabi_attribute	67, "2.09"	@ Tag_conformance
	.cpu	cortex-m23
	.eabi_attribute	6, 16	@ Tag_CPU_arch
	.eabi_attribute	7, 77	@ Tag_CPU_arch_profile
	.eabi_attribute	8, 0	@ Tag_ARM_ISA_use
	.eabi_attribute	9, 3	@ Tag_THUMB_ISA_use
	.eabi_attribute	34, 0	@ Tag_CPU_unaligned_access
	.eabi_attribute	17, 1	@ Tag_ABI_PCS_GOT_use
	.eabi_attribute	20, 2	@ Tag_ABI_FP_denormal
	.eabi_attribute	21, 0	@ Tag_ABI_FP_exceptions
	.eabi_attribute	23, 1	@ Tag_ABI_FP_number_model
	.eabi_attribute	24, 1	@ Tag_ABI_align_needed
	.eabi_attribute	25, 1	@ Tag_ABI_align_preserved
	.eabi_attribute	38, 1	@ Tag_ABI_FP_16bit_format
	.eabi_attribute	18, 2	@ Tag_ABI_PCS_wchar_t
	.eabi_attribute	26, 1	@ Tag_ABI_enum_size
	.eabi_attribute	14, 0	@ Tag_ABI_PCS_R9_use
	.file	"usbd.c"
	.file	1 "C:\\Keil_v5\\ARM\\ARMCLANG\\Bin\\..\\include" "stdint.h"
	.file	2 "D:\\Software Tools\\Keil\\Test\\M251BSP-master\\M251BSP-master\\SampleCode\\StdDriver\\USBD_HID_Transfer\\KEIL" "../../../../Library/StdDriver/src/usbd.c"
	.file	3 "D:\\Software Tools\\Keil\\Test\\M251BSP-master\\M251BSP-master\\SampleCode\\StdDriver\\USBD_HID_Transfer\\KEIL" "../../../../Library/StdDriver/inc\\usbd.h"
	.file	4 "D:\\Software Tools\\Keil\\Test\\M251BSP-master\\M251BSP-master\\SampleCode\\StdDriver\\USBD_HID_Transfer\\KEIL" "../../../../Library/Device/Nuvoton/M251/Include/usbd_reg.h"
	.file	5 "D:\\Software Tools\\Keil\\Test\\M251BSP-master\\M251BSP-master\\SampleCode\\StdDriver\\USBD_HID_Transfer\\KEIL" "../../../../Library/Device/Nuvoton/M251/Include/M251.h"
	.section	.text.USBD_Open,"ax",%progbits
	.hidden	USBD_Open                       @ -- Begin function USBD_Open
	.globl	USBD_Open
	.p2align	2
	.type	USBD_Open,%function
	.code	16                              @ @USBD_Open
	.thumb_func
USBD_Open:
.Lfunc_begin0:
	.loc	2 79 0                          @ ../../../../Library/StdDriver/src/usbd.c:79:0
	.fnstart
	.cfi_sections .debug_frame
	.cfi_startproc
@ %bb.0:
	.pad	#12
	sub	sp, #12
	.cfi_def_cfa_offset 12
	str	r0, [sp, #8]
	str	r1, [sp, #4]
	str	r2, [sp]
.Ltmp0:
	.loc	2 80 31 prologue_end            @ ../../../../Library/StdDriver/src/usbd.c:80:31
	ldr	r1, [sp, #8]
	.loc	2 80 29 is_stmt 0               @ ../../../../Library/StdDriver/src/usbd.c:80:29
	ldr	r0, __arm_cp.0_0
	str	r1, [r0]
	.loc	2 81 31 is_stmt 1               @ ../../../../Library/StdDriver/src/usbd.c:81:31
	ldr	r1, [sp, #4]
	.loc	2 81 29 is_stmt 0               @ ../../../../Library/StdDriver/src/usbd.c:81:29
	ldr	r2, __arm_cp.0_1
	str	r1, [r2]
	.loc	2 82 31 is_stmt 1               @ ../../../../Library/StdDriver/src/usbd.c:82:31
	ldr	r1, [sp]
	.loc	2 82 29 is_stmt 0               @ ../../../../Library/StdDriver/src/usbd.c:82:29
	ldr	r2, __arm_cp.0_2
	str	r1, [r2]
	.loc	2 85 32 is_stmt 1               @ ../../../../Library/StdDriver/src/usbd.c:85:32
	ldr	r0, [r0]
	.loc	2 85 46 is_stmt 0               @ ../../../../Library/StdDriver/src/usbd.c:85:46
	ldr	r0, [r0]
	.loc	2 85 32                         @ ../../../../Library/StdDriver/src/usbd.c:85:32
	ldrb	r0, [r0, #7]
	.loc	2 85 30                         @ ../../../../Library/StdDriver/src/usbd.c:85:30
	ldr	r1, __arm_cp.0_3
	str	r0, [r1]
	ldr	r1, __arm_cp.0_4
	movw	r0, #2000
	.loc	2 91 16 is_stmt 1               @ ../../../../Library/StdDriver/src/usbd.c:91:16
	str	r0, [r1]
	ldr	r1, __arm_cp.0_5
	.loc	2 94 5                          @ ../../../../Library/StdDriver/src/usbd.c:94:5
	ldr	r0, [r1]
	movs	r2, #1
	orrs	r0, r2
	str	r0, [r1]
	.loc	2 95 1                          @ ../../../../Library/StdDriver/src/usbd.c:95:1
	add	sp, #12
	bx	lr
.Ltmp1:
	.p2align	2
@ %bb.1:
	.loc	2 0 1 is_stmt 0                 @ ../../../../Library/StdDriver/src/usbd.c:0:1
__arm_cp.0_0:
	.long	g_USBD_sINFO
.Lcpi_end0:
	.size	__arm_cp.0_0, .Lcpi_end0-__arm_cp.0_0
__arm_cp.0_1:
	.long	g_USBD_pfnClassRequest
.Lcpi_end1:
	.size	__arm_cp.0_1, .Lcpi_end1-__arm_cp.0_1
__arm_cp.0_2:
	.long	g_USBD_pfnSetInterface
.Lcpi_end2:
	.size	__arm_cp.0_2, .Lcpi_end2-__arm_cp.0_2
__arm_cp.0_3:
	.long	s_USBD_u32CtrlMaxPktSize
.Lcpi_end3:
	.size	__arm_cp.0_3, .Lcpi_end3-__arm_cp.0_3
__arm_cp.0_4:
	.long	1074528272                      @ 0x400c0010
.Lcpi_end4:
	.size	__arm_cp.0_4, .Lcpi_end4-__arm_cp.0_4
__arm_cp.0_5:
	.long	1074528400                      @ 0x400c0090
.Lcpi_end5:
	.size	__arm_cp.0_5, .Lcpi_end5-__arm_cp.0_5
.Lfunc_end0:
	.size	USBD_Open, .Lfunc_end0-USBD_Open
	.cfi_endproc
	.cantunwind
	.fnend
                                        @ -- End function
	.section	.text.USBD_Start,"ax",%progbits
	.hidden	USBD_Start                      @ -- Begin function USBD_Start
	.globl	USBD_Start
	.p2align	2
	.type	USBD_Start,%function
	.code	16                              @ @USBD_Start
	.thumb_func
USBD_Start:
.Lfunc_begin1:
	.loc	2 107 0 is_stmt 1               @ ../../../../Library/StdDriver/src/usbd.c:107:0
	.fnstart
	.cfi_startproc
@ %bb.0:
	ldr	r1, __arm_cp.1_0
.Ltmp2:
	.loc	2 109 5 prologue_end            @ ../../../../Library/StdDriver/src/usbd.c:109:5
	ldr	r0, [r1]
	movs	r2, #1
	bics	r0, r2
	str	r0, [r1]
	ldr	r0, __arm_cp.1_1
	movw	r2, #271
	.loc	2 112 5                         @ ../../../../Library/StdDriver/src/usbd.c:112:5
	str	r2, [r0]
	ldr	r1, __arm_cp.1_2
	.loc	2 115 5                         @ ../../../../Library/StdDriver/src/usbd.c:115:5
	ldr	r0, [r1]
	orrs	r0, r2
	str	r0, [r1]
	.loc	2 116 1                         @ ../../../../Library/StdDriver/src/usbd.c:116:1
	bx	lr
.Ltmp3:
	.p2align	2
@ %bb.1:
	.loc	2 0 1 is_stmt 0                 @ ../../../../Library/StdDriver/src/usbd.c:0:1
__arm_cp.1_0:
	.long	1074528400                      @ 0x400c0090
.Lcpi_end6:
	.size	__arm_cp.1_0, .Lcpi_end6-__arm_cp.1_0
__arm_cp.1_1:
	.long	1074528260                      @ 0x400c0004
.Lcpi_end7:
	.size	__arm_cp.1_1, .Lcpi_end7-__arm_cp.1_1
__arm_cp.1_2:
	.long	1074528256                      @ 0x400c0000
.Lcpi_end8:
	.size	__arm_cp.1_2, .Lcpi_end8-__arm_cp.1_2
.Lfunc_end1:
	.size	USBD_Start, .Lfunc_end1-USBD_Start
	.cfi_endproc
	.cantunwind
	.fnend
                                        @ -- End function
	.section	.text.USBD_GetSetupPacket,"ax",%progbits
	.hidden	USBD_GetSetupPacket             @ -- Begin function USBD_GetSetupPacket
	.globl	USBD_GetSetupPacket
	.p2align	2
	.type	USBD_GetSetupPacket,%function
	.code	16                              @ @USBD_GetSetupPacket
	.thumb_func
USBD_GetSetupPacket:
.Lfunc_begin2:
	.loc	2 129 0 is_stmt 1               @ ../../../../Library/StdDriver/src/usbd.c:129:0
	.fnstart
	.cfi_startproc
@ %bb.0:
	.save	{r7, lr}
	push	{r7, lr}
	.cfi_def_cfa_offset 8
	.cfi_offset lr, -4
	.cfi_offset r7, -8
	.pad	#8
	sub	sp, #8
	.cfi_def_cfa_offset 16
	str	r0, [sp, #4]
.Ltmp4:
	.loc	2 130 18 prologue_end           @ ../../../../Library/StdDriver/src/usbd.c:130:18
	ldr	r0, [sp, #4]
	.loc	2 130 5 is_stmt 0               @ ../../../../Library/StdDriver/src/usbd.c:130:5
	ldr	r1, __arm_cp.2_0
	movs	r2, #8
	bl	USBD_MemCopy
	.loc	2 131 1 is_stmt 1               @ ../../../../Library/StdDriver/src/usbd.c:131:1
	add	sp, #8
	pop	{r7, pc}
.Ltmp5:
	.p2align	2
@ %bb.1:
	.loc	2 0 1 is_stmt 0                 @ ../../../../Library/StdDriver/src/usbd.c:0:1
__arm_cp.2_0:
	.long	g_USBD_au8SetupPacket
.Lcpi_end9:
	.size	__arm_cp.2_0, .Lcpi_end9-__arm_cp.2_0
.Lfunc_end2:
	.size	USBD_GetSetupPacket, .Lfunc_end2-USBD_GetSetupPacket
	.cfi_endproc
	.cantunwind
	.fnend
                                        @ -- End function
	.section	.text.USBD_MemCopy,"ax",%progbits
	.p2align	1                               @ -- Begin function USBD_MemCopy
	.type	USBD_MemCopy,%function
	.code	16                              @ @USBD_MemCopy
	.thumb_func
USBD_MemCopy:
.Lfunc_begin3:
	.loc	3 565 0 is_stmt 1               @ ../../../../Library/StdDriver/inc\usbd.h:565:0
	.fnstart
	.cfi_startproc
@ %bb.0:
	.pad	#12
	sub	sp, #12
	.cfi_def_cfa_offset 12
	str	r0, [sp, #8]
	str	r1, [sp, #4]
	str	r2, [sp]
.Ltmp6:
	.loc	3 566 5 prologue_end            @ ../../../../Library/StdDriver/inc\usbd.h:566:5
	b	.LBB3_1
.LBB3_1:                                @ =>This Inner Loop Header: Depth=1
	.loc	3 566 16 is_stmt 0              @ ../../../../Library/StdDriver/inc\usbd.h:566:16
	ldr	r0, [sp]
	subs	r1, r0, #1
	str	r1, [sp]
	.loc	3 566 5                         @ ../../../../Library/StdDriver/inc\usbd.h:566:5
	cbz	r0, .LBB3_3
	b	.LBB3_2
.LBB3_2:                                @   in Loop: Header=BB3_1 Depth=1
	.loc	3 566 34                        @ ../../../../Library/StdDriver/inc\usbd.h:566:34
	ldr	r0, [sp, #4]
	adds	r1, r0, #1
	str	r1, [sp, #4]
	.loc	3 566 30                        @ ../../../../Library/StdDriver/inc\usbd.h:566:30
	ldrb	r0, [r0]
	.loc	3 566 25                        @ ../../../../Library/StdDriver/inc\usbd.h:566:25
	ldr	r1, [sp, #8]
	adds	r2, r1, #1
	str	r2, [sp, #8]
	.loc	3 566 28                        @ ../../../../Library/StdDriver/inc\usbd.h:566:28
	strb	r0, [r1]
	.loc	3 566 5                         @ ../../../../Library/StdDriver/inc\usbd.h:566:5
	b	.LBB3_1
.LBB3_3:
	.loc	3 567 1 is_stmt 1               @ ../../../../Library/StdDriver/inc\usbd.h:567:1
	add	sp, #12
	bx	lr
.Ltmp7:
.Lfunc_end3:
	.size	USBD_MemCopy, .Lfunc_end3-USBD_MemCopy
	.cfi_endproc
	.cantunwind
	.fnend
                                        @ -- End function
	.section	.text.USBD_ProcessSetupPacket,"ax",%progbits
	.hidden	USBD_ProcessSetupPacket         @ -- Begin function USBD_ProcessSetupPacket
	.globl	USBD_ProcessSetupPacket
	.p2align	2
	.type	USBD_ProcessSetupPacket,%function
	.code	16                              @ @USBD_ProcessSetupPacket
	.thumb_func
USBD_ProcessSetupPacket:
.Lfunc_begin4:
	.loc	2 144 0                         @ ../../../../Library/StdDriver/src/usbd.c:144:0
	.fnstart
	.cfi_startproc
@ %bb.0:
	.save	{r7, lr}
	push	{r7, lr}
	.cfi_def_cfa_offset 8
	.cfi_offset lr, -4
	.cfi_offset r7, -8
	.pad	#8
	sub	sp, #8
	.cfi_def_cfa_offset 16
.Ltmp8:
	.loc	2 145 29 prologue_end           @ ../../../../Library/StdDriver/src/usbd.c:145:29
	ldr	r1, __arm_cp.4_0
	movs	r0, #0
	str	r0, [r1]
	.loc	2 147 5                         @ ../../../../Library/StdDriver/src/usbd.c:147:5
	ldr	r0, __arm_cp.4_1
	str	r0, [sp]                        @ 4-byte Spill
	ldr	r1, __arm_cp.4_2
	movs	r2, #8
	bl	USBD_MemCopy
	ldr	r0, [sp]                        @ 4-byte Reload
	.loc	2 150 13                        @ ../../../../Library/StdDriver/src/usbd.c:150:13
	ldrb	r0, [r0]
	movs	r1, #96
	.loc	2 150 38 is_stmt 0              @ ../../../../Library/StdDriver/src/usbd.c:150:38
	ands	r0, r1
	.loc	2 150 5                         @ ../../../../Library/StdDriver/src/usbd.c:150:5
	str	r0, [sp, #4]                    @ 4-byte Spill
	cbz	r0, .LBB4_3
	b	.LBB4_1
.LBB4_1:
	ldr	r0, [sp, #4]                    @ 4-byte Reload
	cmp	r0, #32
	beq	.LBB4_4
	b	.LBB4_2
.LBB4_2:
	ldr	r0, [sp, #4]                    @ 4-byte Reload
	cmp	r0, #64
	beq	.LBB4_7
	b	.LBB4_10
.LBB4_3:
.Ltmp9:
	.loc	2 154 13 is_stmt 1              @ ../../../../Library/StdDriver/src/usbd.c:154:13
	bl	USBD_StandardRequest
	.loc	2 155 13                        @ ../../../../Library/StdDriver/src/usbd.c:155:13
	b	.LBB4_11
.Ltmp10:
.LBB4_4:
	.loc	2 160 17                        @ ../../../../Library/StdDriver/src/usbd.c:160:17
	ldr	r0, __arm_cp.4_4
	ldr	r0, [r0]
.Ltmp11:
	.loc	2 160 17 is_stmt 0              @ ../../../../Library/StdDriver/src/usbd.c:160:17
	cbz	r0, .LBB4_6
	b	.LBB4_5
.LBB4_5:
.Ltmp12:
	.loc	2 162 17 is_stmt 1              @ ../../../../Library/StdDriver/src/usbd.c:162:17
	ldr	r0, __arm_cp.4_4
	ldr	r0, [r0]
	blx	r0
	.loc	2 163 13                        @ ../../../../Library/StdDriver/src/usbd.c:163:13
	b	.LBB4_6
.Ltmp13:
.LBB4_6:
	.loc	2 165 13                        @ ../../../../Library/StdDriver/src/usbd.c:165:13
	b	.LBB4_11
.Ltmp14:
.LBB4_7:
	.loc	2 170 17                        @ ../../../../Library/StdDriver/src/usbd.c:170:17
	ldr	r0, __arm_cp.4_3
	ldr	r0, [r0]
.Ltmp15:
	.loc	2 170 17 is_stmt 0              @ ../../../../Library/StdDriver/src/usbd.c:170:17
	cbz	r0, .LBB4_9
	b	.LBB4_8
.LBB4_8:
.Ltmp16:
	.loc	2 172 17 is_stmt 1              @ ../../../../Library/StdDriver/src/usbd.c:172:17
	ldr	r0, __arm_cp.4_3
	ldr	r0, [r0]
	blx	r0
	.loc	2 173 13                        @ ../../../../Library/StdDriver/src/usbd.c:173:13
	b	.LBB4_9
.Ltmp17:
.LBB4_9:
	.loc	2 175 13                        @ ../../../../Library/StdDriver/src/usbd.c:175:13
	b	.LBB4_11
.Ltmp18:
.LBB4_10:
	.loc	2 0 13 is_stmt 0                @ ../../../../Library/StdDriver/src/usbd.c:0:13
	ldr	r1, __arm_cp.4_5
.Ltmp19:
	.loc	2 181 13 is_stmt 1              @ ../../../../Library/StdDriver/src/usbd.c:181:13
	ldr	r0, [r1]
	movs	r2, #2
	orrs	r0, r2
	str	r0, [r1]
	ldr	r1, __arm_cp.4_6
	.loc	2 182 13                        @ ../../../../Library/StdDriver/src/usbd.c:182:13
	ldr	r0, [r1]
	orrs	r0, r2
	str	r0, [r1]
	.loc	2 183 13                        @ ../../../../Library/StdDriver/src/usbd.c:183:13
	b	.LBB4_11
.Ltmp20:
.LBB4_11:
	.loc	2 186 1                         @ ../../../../Library/StdDriver/src/usbd.c:186:1
	add	sp, #8
	pop	{r7, pc}
.Ltmp21:
	.p2align	2
@ %bb.12:
	.loc	2 0 1 is_stmt 0                 @ ../../../../Library/StdDriver/src/usbd.c:0:1
__arm_cp.4_0:
	.long	s_USBD_u32CtrlOutToggle
.Lcpi_end10:
	.size	__arm_cp.4_0, .Lcpi_end10-__arm_cp.4_0
__arm_cp.4_1:
	.long	g_USBD_au8SetupPacket
.Lcpi_end11:
	.size	__arm_cp.4_1, .Lcpi_end11-__arm_cp.4_1
__arm_cp.4_2:
	.long	1074528512                      @ 0x400c0100
.Lcpi_end12:
	.size	__arm_cp.4_2, .Lcpi_end12-__arm_cp.4_2
__arm_cp.4_3:
	.long	g_USBD_pfnVendorRequest
.Lcpi_end13:
	.size	__arm_cp.4_3, .Lcpi_end13-__arm_cp.4_3
__arm_cp.4_4:
	.long	g_USBD_pfnClassRequest
.Lcpi_end14:
	.size	__arm_cp.4_4, .Lcpi_end14-__arm_cp.4_4
__arm_cp.4_5:
	.long	1074529548                      @ 0x400c050c
.Lcpi_end15:
	.size	__arm_cp.4_5, .Lcpi_end15-__arm_cp.4_5
__arm_cp.4_6:
	.long	1074529564                      @ 0x400c051c
.Lcpi_end16:
	.size	__arm_cp.4_6, .Lcpi_end16-__arm_cp.4_6
.Lfunc_end4:
	.size	USBD_ProcessSetupPacket, .Lfunc_end4-USBD_ProcessSetupPacket
	.cfi_endproc
	.cantunwind
	.fnend
                                        @ -- End function
	.section	.text.USBD_StandardRequest,"ax",%progbits
	.hidden	USBD_StandardRequest            @ -- Begin function USBD_StandardRequest
	.globl	USBD_StandardRequest
	.p2align	2
	.type	USBD_StandardRequest,%function
	.code	16                              @ @USBD_StandardRequest
	.thumb_func
USBD_StandardRequest:
.Lfunc_begin5:
	.loc	2 359 0 is_stmt 1               @ ../../../../Library/StdDriver/src/usbd.c:359:0
	.fnstart
	.cfi_startproc
@ %bb.0:
	.save	{r7, lr}
	push	{r7, lr}
	.cfi_def_cfa_offset 8
	.cfi_offset lr, -4
	.cfi_offset r7, -8
	.pad	#24
	sub	sp, #24
	.cfi_def_cfa_offset 32
.Ltmp22:
	.loc	2 363 29 prologue_end           @ ../../../../Library/StdDriver/src/usbd.c:363:29
	ldr	r1, __arm_cp.5_0
	movs	r0, #0
	str	r0, [r1]
	.loc	2 364 29                        @ ../../../../Library/StdDriver/src/usbd.c:364:29
	ldr	r1, __arm_cp.5_1
	str	r0, [r1]
.Ltmp23:
	.loc	2 366 9                         @ ../../../../Library/StdDriver/src/usbd.c:366:9
	ldr	r0, __arm_cp.5_2
	ldrb	r0, [r0]
.Ltmp24:
	.loc	2 366 9 is_stmt 0               @ ../../../../Library/StdDriver/src/usbd.c:366:9
	lsls	r0, r0, #24
	cmp	r0, #0
	bmi	.LBB5_1
	b	.LBB5_22
.LBB5_1:
.Ltmp25:
	.loc	2 369 17 is_stmt 1              @ ../../../../Library/StdDriver/src/usbd.c:369:17
	ldr	r0, __arm_cp.5_2
	ldrb	r0, [r0, #1]
	.loc	2 369 9 is_stmt 0               @ ../../../../Library/StdDriver/src/usbd.c:369:9
	str	r0, [sp, #4]                    @ 4-byte Spill
	cmp	r0, #10
	bls	.LBB5_2
	b	.LBB5_20
.LBB5_2:
	.loc	2 0 9                           @ ../../../../Library/StdDriver/src/usbd.c:0:9
	ldr	r1, [sp, #4]                    @ 4-byte Reload
	lsls	r2, r1, #2
	adr	r0, .LJTI5_1
	adds	r0, r0, r2
	mov	pc, r0
@ %bb.3:
	.p2align	2
.LJTI5_1:
	b.w	.LBB5_7
	b.w	.LBB5_20
	b.w	.LBB5_20
	b.w	.LBB5_20
	b.w	.LBB5_20
	b.w	.LBB5_20
	b.w	.LBB5_5
	b.w	.LBB5_20
	b.w	.LBB5_4
	b.w	.LBB5_20
	b.w	.LBB5_6
.LBB5_4:
.Ltmp26:
	.loc	2 375 74 is_stmt 1              @ ../../../../Library/StdDriver/src/usbd.c:375:74
	ldr	r0, __arm_cp.5_8
	ldr	r0, [r0]
	ldr	r1, __arm_cp.5_14
	.loc	2 375 17 is_stmt 0              @ ../../../../Library/StdDriver/src/usbd.c:375:17
	ldr	r1, [r1]
	ldr	r2, __arm_cp.5_15
	.loc	2 375 63                        @ ../../../../Library/StdDriver/src/usbd.c:375:63
	strb	r0, [r1, r2]
	ldr	r1, __arm_cp.5_5
	.loc	2 376 17 is_stmt 1              @ ../../../../Library/StdDriver/src/usbd.c:376:17
	ldr	r0, [r1]
	movs	r2, #128
	orrs	r0, r2
	str	r0, [r1]
	ldr	r1, __arm_cp.5_6
	movs	r0, #1
	.loc	2 377 17                        @ ../../../../Library/StdDriver/src/usbd.c:377:17
	str	r0, [r1]
	movs	r1, #0
	.loc	2 379 17                        @ ../../../../Library/StdDriver/src/usbd.c:379:17
	mov	r0, r1
	bl	USBD_PrepareCtrlOut
	.loc	2 383 17                        @ ../../../../Library/StdDriver/src/usbd.c:383:17
	b	.LBB5_21
.Ltmp27:
.LBB5_5:
	.loc	2 388 17                        @ ../../../../Library/StdDriver/src/usbd.c:388:17
	bl	USBD_GetDescriptor
	movs	r1, #0
	.loc	2 389 17                        @ ../../../../Library/StdDriver/src/usbd.c:389:17
	mov	r0, r1
	bl	USBD_PrepareCtrlOut
	.loc	2 390 17                        @ ../../../../Library/StdDriver/src/usbd.c:390:17
	b	.LBB5_21
.Ltmp28:
.LBB5_6:
	.loc	2 397 74                        @ ../../../../Library/StdDriver/src/usbd.c:397:74
	ldr	r0, __arm_cp.5_3
	ldr	r0, [r0]
	ldr	r1, __arm_cp.5_14
	.loc	2 397 17 is_stmt 0              @ ../../../../Library/StdDriver/src/usbd.c:397:17
	ldr	r1, [r1]
	ldr	r2, __arm_cp.5_15
	.loc	2 397 63                        @ ../../../../Library/StdDriver/src/usbd.c:397:63
	strb	r0, [r1, r2]
	ldr	r1, __arm_cp.5_5
	.loc	2 398 17 is_stmt 1              @ ../../../../Library/StdDriver/src/usbd.c:398:17
	ldr	r0, [r1]
	movs	r2, #128
	orrs	r0, r2
	str	r0, [r1]
	ldr	r1, __arm_cp.5_6
	movs	r0, #1
	.loc	2 399 17                        @ ../../../../Library/StdDriver/src/usbd.c:399:17
	str	r0, [r1]
	movs	r1, #0
	.loc	2 401 17                        @ ../../../../Library/StdDriver/src/usbd.c:401:17
	mov	r0, r1
	bl	USBD_PrepareCtrlOut
	.loc	2 405 17                        @ ../../../../Library/StdDriver/src/usbd.c:405:17
	b	.LBB5_21
.Ltmp29:
.LBB5_7:
	.loc	2 411 21                        @ ../../../../Library/StdDriver/src/usbd.c:411:21
	ldr	r0, __arm_cp.5_2
	ldrb	r0, [r0]
.Ltmp30:
	.loc	2 411 21 is_stmt 0              @ ../../../../Library/StdDriver/src/usbd.c:411:21
	cmp	r0, #128
	bne	.LBB5_13
	b	.LBB5_8
.LBB5_8:
	.loc	2 0 21                          @ ../../../../Library/StdDriver/src/usbd.c:0:21
	add	r1, sp, #20
	movs	r0, #0
.Ltmp31:
	.loc	2 415 27 is_stmt 1              @ ../../../../Library/StdDriver/src/usbd.c:415:27
	strb	r0, [r1]
.Ltmp32:
	.loc	2 417 25                        @ ../../../../Library/StdDriver/src/usbd.c:417:25
	ldr	r0, __arm_cp.5_16
	ldr	r0, [r0]
	.loc	2 417 39 is_stmt 0              @ ../../../../Library/StdDriver/src/usbd.c:417:39
	ldr	r0, [r0, #4]
	.loc	2 417 25                        @ ../../../../Library/StdDriver/src/usbd.c:417:25
	ldrb	r0, [r0, #7]
.Ltmp33:
	.loc	2 417 25                        @ ../../../../Library/StdDriver/src/usbd.c:417:25
	lsls	r0, r0, #25
	cmp	r0, #0
	bpl	.LBB5_10
	b	.LBB5_9
.LBB5_9:
.Ltmp34:
	.loc	2 417 72                        @ ../../../../Library/StdDriver/src/usbd.c:417:72
	ldr	r0, [sp, #20]
	movs	r1, #1
	orrs	r0, r1
	add	r1, sp, #20
	strb	r0, [r1]
	.loc	2 417 66                        @ ../../../../Library/StdDriver/src/usbd.c:417:66
	b	.LBB5_10
.Ltmp35:
.LBB5_10:
	.loc	2 419 25 is_stmt 1              @ ../../../../Library/StdDriver/src/usbd.c:419:25
	ldr	r0, __arm_cp.5_16
	ldr	r0, [r0]
	.loc	2 419 39 is_stmt 0              @ ../../../../Library/StdDriver/src/usbd.c:419:39
	ldr	r0, [r0, #4]
	.loc	2 419 25                        @ ../../../../Library/StdDriver/src/usbd.c:419:25
	ldrb	r0, [r0, #7]
.Ltmp36:
	.loc	2 419 25                        @ ../../../../Library/StdDriver/src/usbd.c:419:25
	lsls	r0, r0, #26
	cmp	r0, #0
	bpl	.LBB5_12
	b	.LBB5_11
.LBB5_11:
.Ltmp37:
	.loc	2 419 85                        @ ../../../../Library/StdDriver/src/usbd.c:419:85
	ldr	r0, __arm_cp.5_7
	ldrb	r0, [r0]
	.loc	2 419 109                       @ ../../../../Library/StdDriver/src/usbd.c:419:109
	lsls	r1, r0, #1
	.loc	2 419 72                        @ ../../../../Library/StdDriver/src/usbd.c:419:72
	ldr	r0, [sp, #20]
	orrs	r0, r1
	add	r1, sp, #20
	strb	r0, [r1]
	.loc	2 419 66                        @ ../../../../Library/StdDriver/src/usbd.c:419:66
	b	.LBB5_12
.Ltmp38:
.LBB5_12:
	.loc	2 421 69 is_stmt 1              @ ../../../../Library/StdDriver/src/usbd.c:421:69
	ldr	r0, [sp, #20]
	ldr	r1, __arm_cp.5_14
	.loc	2 421 21 is_stmt 0              @ ../../../../Library/StdDriver/src/usbd.c:421:21
	ldr	r1, [r1]
	ldr	r2, __arm_cp.5_15
	.loc	2 421 67                        @ ../../../../Library/StdDriver/src/usbd.c:421:67
	strb	r0, [r1, r2]
	.loc	2 423 17 is_stmt 1              @ ../../../../Library/StdDriver/src/usbd.c:423:17
	b	.LBB5_19
.Ltmp39:
.LBB5_13:
	.loc	2 425 26                        @ ../../../../Library/StdDriver/src/usbd.c:425:26
	ldr	r0, __arm_cp.5_2
	ldrb	r0, [r0]
.Ltmp40:
	.loc	2 425 26 is_stmt 0              @ ../../../../Library/StdDriver/src/usbd.c:425:26
	cmp	r0, #129
	bne	.LBB5_15
	b	.LBB5_14
.LBB5_14:
	.loc	2 0 26                          @ ../../../../Library/StdDriver/src/usbd.c:0:26
	ldr	r0, __arm_cp.5_14
.Ltmp41:
	.loc	2 426 21 is_stmt 1              @ ../../../../Library/StdDriver/src/usbd.c:426:21
	ldr	r1, [r0]
	ldr	r2, __arm_cp.5_15
	movs	r0, #0
	.loc	2 426 67 is_stmt 0              @ ../../../../Library/StdDriver/src/usbd.c:426:67
	strb	r0, [r1, r2]
	.loc	2 426 21                        @ ../../../../Library/StdDriver/src/usbd.c:426:21
	b	.LBB5_18
.LBB5_15:
.Ltmp42:
	.loc	2 428 26 is_stmt 1              @ ../../../../Library/StdDriver/src/usbd.c:428:26
	ldr	r0, __arm_cp.5_2
	ldrb	r0, [r0]
.Ltmp43:
	.loc	2 428 26 is_stmt 0              @ ../../../../Library/StdDriver/src/usbd.c:428:26
	cmp	r0, #130
	bne	.LBB5_17
	b	.LBB5_16
.LBB5_16:
.Ltmp44:
	.loc	2 430 43 is_stmt 1              @ ../../../../Library/StdDriver/src/usbd.c:430:43
	ldr	r0, __arm_cp.5_2
	.loc	2 430 34 is_stmt 0              @ ../../../../Library/StdDriver/src/usbd.c:430:34
	ldrb	r1, [r0, #4]
	movs	r0, #15
	.loc	2 430 68                        @ ../../../../Library/StdDriver/src/usbd.c:430:68
	ands	r1, r0
	add	r0, sp, #16
	.loc	2 430 29                        @ ../../../../Library/StdDriver/src/usbd.c:430:29
	strb	r1, [r0]
	.loc	2 431 93 is_stmt 1              @ ../../../../Library/StdDriver/src/usbd.c:431:93
	ldrb	r0, [r0]
	.loc	2 431 79 is_stmt 0              @ ../../../../Library/StdDriver/src/usbd.c:431:79
	bl	USBD_GetStall
	subs	r1, r0, #1
	sbcs	r0, r1
	ldr	r1, __arm_cp.5_14
	.loc	2 431 21                        @ ../../../../Library/StdDriver/src/usbd.c:431:21
	ldr	r1, [r1]
	ldr	r2, __arm_cp.5_15
	.loc	2 431 67                        @ ../../../../Library/StdDriver/src/usbd.c:431:67
	strb	r0, [r1, r2]
	.loc	2 432 17 is_stmt 1              @ ../../../../Library/StdDriver/src/usbd.c:432:17
	b	.LBB5_17
.Ltmp45:
.LBB5_17:
	.loc	2 0 17 is_stmt 0                @ ../../../../Library/StdDriver/src/usbd.c:0:17
	b	.LBB5_18
.LBB5_18:
	b	.LBB5_19
.LBB5_19:
	ldr	r0, __arm_cp.5_14
	.loc	2 434 17 is_stmt 1              @ ../../../../Library/StdDriver/src/usbd.c:434:17
	ldr	r0, [r0]
	ldr	r2, __arm_cp.5_17
	movs	r1, #0
	.loc	2 434 67 is_stmt 0              @ ../../../../Library/StdDriver/src/usbd.c:434:67
	strb	r1, [r0, r2]
	ldr	r2, __arm_cp.5_5
	.loc	2 436 17 is_stmt 1              @ ../../../../Library/StdDriver/src/usbd.c:436:17
	ldr	r0, [r2]
	movs	r3, #128
	orrs	r0, r3
	str	r0, [r2]
	ldr	r2, __arm_cp.5_6
	movs	r0, #2
	.loc	2 437 17                        @ ../../../../Library/StdDriver/src/usbd.c:437:17
	str	r0, [r2]
	.loc	2 439 17                        @ ../../../../Library/StdDriver/src/usbd.c:439:17
	mov	r0, r1
	bl	USBD_PrepareCtrlOut
	.loc	2 443 17                        @ ../../../../Library/StdDriver/src/usbd.c:443:17
	b	.LBB5_21
.Ltmp46:
.LBB5_20:
	.loc	2 0 17 is_stmt 0                @ ../../../../Library/StdDriver/src/usbd.c:0:17
	ldr	r1, __arm_cp.5_12
.Ltmp47:
	.loc	2 449 17 is_stmt 1              @ ../../../../Library/StdDriver/src/usbd.c:449:17
	ldr	r0, [r1]
	movs	r2, #2
	orrs	r0, r2
	str	r0, [r1]
	ldr	r1, __arm_cp.5_13
	.loc	2 450 17                        @ ../../../../Library/StdDriver/src/usbd.c:450:17
	ldr	r0, [r1]
	orrs	r0, r2
	str	r0, [r1]
	.loc	2 454 17                        @ ../../../../Library/StdDriver/src/usbd.c:454:17
	b	.LBB5_21
.Ltmp48:
.LBB5_21:
	.loc	2 457 5                         @ ../../../../Library/StdDriver/src/usbd.c:457:5
	b	.LBB5_53
.Ltmp49:
.LBB5_22:
	.loc	2 461 17                        @ ../../../../Library/StdDriver/src/usbd.c:461:17
	ldr	r0, __arm_cp.5_2
	ldrb	r0, [r0, #1]
	.loc	2 461 9 is_stmt 0               @ ../../../../Library/StdDriver/src/usbd.c:461:9
	subs	r0, r0, #1
	str	r0, [sp]                        @ 4-byte Spill
	cmp	r0, #10
	bls	.LBB5_23
	b	.LBB5_51
.LBB5_23:
	.loc	2 0 9                           @ ../../../../Library/StdDriver/src/usbd.c:0:9
	ldr	r1, [sp]                        @ 4-byte Reload
	lsls	r2, r1, #2
	adr	r0, .LJTI5_0
	adds	r0, r0, r2
	mov	pc, r0
@ %bb.24:
	.p2align	2
.LJTI5_0:
	b.w	.LBB5_25
	b.w	.LBB5_51
	b.w	.LBB5_42
	b.w	.LBB5_51
	b.w	.LBB5_38
	b.w	.LBB5_51
	b.w	.LBB5_51
	b.w	.LBB5_51
	b.w	.LBB5_39
	b.w	.LBB5_51
	b.w	.LBB5_48
.LBB5_25:
.Ltmp50:
	.loc	2 465 21 is_stmt 1              @ ../../../../Library/StdDriver/src/usbd.c:465:21
	ldr	r0, __arm_cp.5_2
	ldrb	r0, [r0, #2]
.Ltmp51:
	.loc	2 465 21 is_stmt 0              @ ../../../../Library/StdDriver/src/usbd.c:465:21
	cbnz	r0, .LBB5_34
	b	.LBB5_26
.LBB5_26:
.Ltmp52:
	.loc	2 471 39 is_stmt 1              @ ../../../../Library/StdDriver/src/usbd.c:471:39
	ldr	r0, __arm_cp.5_2
	ldrb	r0, [r0, #4]
	movs	r1, #15
	.loc	2 471 64 is_stmt 0              @ ../../../../Library/StdDriver/src/usbd.c:471:64
	ands	r0, r1
	.loc	2 471 27                        @ ../../../../Library/StdDriver/src/usbd.c:471:27
	str	r0, [sp, #12]
	movs	r0, #0
.Ltmp53:
	.loc	2 473 28 is_stmt 1              @ ../../../../Library/StdDriver/src/usbd.c:473:28
	str	r0, [sp, #8]
	.loc	2 473 26 is_stmt 0              @ ../../../../Library/StdDriver/src/usbd.c:473:26
	b	.LBB5_27
.LBB5_27:                               @ =>This Inner Loop Header: Depth=1
.Ltmp54:
	.loc	2 473 35                        @ ../../../../Library/StdDriver/src/usbd.c:473:35
	ldr	r0, [sp, #8]
.Ltmp55:
	.loc	2 473 21                        @ ../../../../Library/StdDriver/src/usbd.c:473:21
	cmp	r0, #11
	bhi	.LBB5_33
	b	.LBB5_28
.LBB5_28:                               @   in Loop: Header=BB5_27 Depth=1
.Ltmp56:
	.loc	2 475 40 is_stmt 1              @ ../../../../Library/StdDriver/src/usbd.c:475:40
	ldr	r0, [sp, #8]
	.loc	2 475 31 is_stmt 0              @ ../../../../Library/StdDriver/src/usbd.c:475:31
	lsls	r0, r0, #4
	ldr	r1, __arm_cp.5_5
	.loc	2 475 43                        @ ../../../../Library/StdDriver/src/usbd.c:475:43
	ldr	r0, [r0, r1]
	movs	r1, #15
	.loc	2 475 47                        @ ../../../../Library/StdDriver/src/usbd.c:475:47
	ands	r0, r1
	.loc	2 475 59                        @ ../../../../Library/StdDriver/src/usbd.c:475:59
	ldr	r1, [sp, #12]
	.loc	2 475 66                        @ ../../../../Library/StdDriver/src/usbd.c:475:66
	cmp	r0, r1
	bne	.LBB5_31
	b	.LBB5_29
.LBB5_29:                               @   in Loop: Header=BB5_27 Depth=1
	.loc	2 475 71                        @ ../../../../Library/StdDriver/src/usbd.c:475:71
	ldr	r0, __arm_cp.5_11
	ldr	r0, [r0]
	.loc	2 475 103                       @ ../../../../Library/StdDriver/src/usbd.c:475:103
	ldr	r1, [sp, #8]
.Ltmp57:
	.loc	2 475 29                        @ ../../../../Library/StdDriver/src/usbd.c:475:29
	lsrs	r0, r1
	lsls	r0, r0, #31
	cbnz	r0, .LBB5_31
	b	.LBB5_30
.LBB5_30:                               @   in Loop: Header=BB5_27 Depth=1
.Ltmp58:
	.loc	2 477 38 is_stmt 1              @ ../../../../Library/StdDriver/src/usbd.c:477:38
	ldr	r0, [sp, #8]
	.loc	2 477 29 is_stmt 0              @ ../../../../Library/StdDriver/src/usbd.c:477:29
	lsls	r1, r0, #4
	ldr	r2, __arm_cp.5_12
	.loc	2 477 46                        @ ../../../../Library/StdDriver/src/usbd.c:477:46
	ldr	r0, [r1, r2]
	movs	r3, #2
	bics	r0, r3
	str	r0, [r1, r2]
	.loc	2 478 38 is_stmt 1              @ ../../../../Library/StdDriver/src/usbd.c:478:38
	ldr	r0, [sp, #8]
	.loc	2 478 29 is_stmt 0              @ ../../../../Library/StdDriver/src/usbd.c:478:29
	lsls	r1, r0, #4
	ldr	r2, __arm_cp.5_5
	.loc	2 478 46                        @ ../../../../Library/StdDriver/src/usbd.c:478:46
	ldr	r0, [r1, r2]
	movs	r3, #128
	bics	r0, r3
	str	r0, [r1, r2]
	.loc	2 480 25 is_stmt 1              @ ../../../../Library/StdDriver/src/usbd.c:480:25
	b	.LBB5_31
.Ltmp59:
.LBB5_31:                               @   in Loop: Header=BB5_27 Depth=1
	.loc	2 481 21                        @ ../../../../Library/StdDriver/src/usbd.c:481:21
	b	.LBB5_32
.Ltmp60:
.LBB5_32:                               @   in Loop: Header=BB5_27 Depth=1
	.loc	2 473 53                        @ ../../../../Library/StdDriver/src/usbd.c:473:53
	ldr	r0, [sp, #8]
	adds	r0, r0, #1
	str	r0, [sp, #8]
	.loc	2 473 21 is_stmt 0              @ ../../../../Library/StdDriver/src/usbd.c:473:21
	b	.LBB5_27
.Ltmp61:
.LBB5_33:
	.loc	2 482 17 is_stmt 1              @ ../../../../Library/StdDriver/src/usbd.c:482:17
	b	.LBB5_37
.Ltmp62:
.LBB5_34:
	.loc	2 483 26                        @ ../../../../Library/StdDriver/src/usbd.c:483:26
	ldr	r0, __arm_cp.5_2
	ldrb	r0, [r0, #2]
.Ltmp63:
	.loc	2 483 26 is_stmt 0              @ ../../../../Library/StdDriver/src/usbd.c:483:26
	cmp	r0, #1
	bne	.LBB5_36
	b	.LBB5_35
.LBB5_35:
.Ltmp64:
	.loc	2 484 45 is_stmt 1              @ ../../../../Library/StdDriver/src/usbd.c:484:45
	ldr	r1, __arm_cp.5_7
	movs	r0, #0
	strb	r0, [r1]
	.loc	2 484 21 is_stmt 0              @ ../../../../Library/StdDriver/src/usbd.c:484:21
	b	.LBB5_36
.Ltmp65:
.LBB5_36:
	.loc	2 0 21                          @ ../../../../Library/StdDriver/src/usbd.c:0:21
	b	.LBB5_37
.LBB5_37:
	ldr	r1, __arm_cp.5_5
	.loc	2 487 17 is_stmt 1              @ ../../../../Library/StdDriver/src/usbd.c:487:17
	ldr	r0, [r1]
	movs	r2, #128
	orrs	r0, r2
	str	r0, [r1]
	ldr	r1, __arm_cp.5_6
	movs	r0, #0
	.loc	2 488 17                        @ ../../../../Library/StdDriver/src/usbd.c:488:17
	str	r0, [r1]
	.loc	2 492 17                        @ ../../../../Library/StdDriver/src/usbd.c:492:17
	b	.LBB5_52
.Ltmp66:
.LBB5_38:
	.loc	2 497 37                        @ ../../../../Library/StdDriver/src/usbd.c:497:37
	ldr	r0, __arm_cp.5_2
	ldrb	r0, [r0, #2]
	.loc	2 497 35 is_stmt 0              @ ../../../../Library/StdDriver/src/usbd.c:497:35
	ldr	r1, __arm_cp.5_10
	str	r0, [r1]
	ldr	r1, __arm_cp.5_5
	.loc	2 502 17 is_stmt 1              @ ../../../../Library/StdDriver/src/usbd.c:502:17
	ldr	r0, [r1]
	movs	r2, #128
	orrs	r0, r2
	str	r0, [r1]
	ldr	r1, __arm_cp.5_6
	movs	r0, #0
	.loc	2 503 17                        @ ../../../../Library/StdDriver/src/usbd.c:503:17
	str	r0, [r1]
	.loc	2 505 17                        @ ../../../../Library/StdDriver/src/usbd.c:505:17
	b	.LBB5_52
.Ltmp67:
.LBB5_39:
	.loc	2 510 39                        @ ../../../../Library/StdDriver/src/usbd.c:510:39
	ldr	r0, __arm_cp.5_2
	ldrb	r0, [r0, #2]
	.loc	2 510 37 is_stmt 0              @ ../../../../Library/StdDriver/src/usbd.c:510:37
	ldr	r1, __arm_cp.5_8
	str	r0, [r1]
.Ltmp68:
	.loc	2 512 21 is_stmt 1              @ ../../../../Library/StdDriver/src/usbd.c:512:21
	ldr	r0, __arm_cp.5_9
	ldr	r0, [r0]
.Ltmp69:
	.loc	2 512 21 is_stmt 0              @ ../../../../Library/StdDriver/src/usbd.c:512:21
	cbz	r0, .LBB5_41
	b	.LBB5_40
.LBB5_40:
.Ltmp70:
	.loc	2 513 21 is_stmt 1              @ ../../../../Library/StdDriver/src/usbd.c:513:21
	ldr	r0, __arm_cp.5_9
	ldr	r0, [r0]
	blx	r0
	b	.LBB5_41
.Ltmp71:
.LBB5_41:
	.loc	2 0 21 is_stmt 0                @ ../../../../Library/StdDriver/src/usbd.c:0:21
	ldr	r1, __arm_cp.5_5
	.loc	2 516 17 is_stmt 1              @ ../../../../Library/StdDriver/src/usbd.c:516:17
	ldr	r0, [r1]
	movs	r2, #128
	orrs	r0, r2
	str	r0, [r1]
	ldr	r1, __arm_cp.5_6
	movs	r0, #0
	.loc	2 517 17                        @ ../../../../Library/StdDriver/src/usbd.c:517:17
	str	r0, [r1]
	.loc	2 521 17                        @ ../../../../Library/StdDriver/src/usbd.c:521:17
	b	.LBB5_52
.Ltmp72:
.LBB5_42:
	.loc	2 526 21                        @ ../../../../Library/StdDriver/src/usbd.c:526:21
	ldr	r0, __arm_cp.5_2
	ldrb	r0, [r0, #2]
.Ltmp73:
	.loc	2 526 21 is_stmt 0              @ ../../../../Library/StdDriver/src/usbd.c:526:21
	cbnz	r0, .LBB5_44
	b	.LBB5_43
.LBB5_43:
.Ltmp74:
	.loc	2 528 45 is_stmt 1              @ ../../../../Library/StdDriver/src/usbd.c:528:45
	ldr	r0, __arm_cp.5_2
	ldrb	r0, [r0, #4]
	movs	r1, #15
	.loc	2 528 70 is_stmt 0              @ ../../../../Library/StdDriver/src/usbd.c:528:70
	ands	r0, r1
	.loc	2 528 21                        @ ../../../../Library/StdDriver/src/usbd.c:528:21
	bl	USBD_SetStall
	.loc	2 530 17 is_stmt 1              @ ../../../../Library/StdDriver/src/usbd.c:530:17
	b	.LBB5_47
.Ltmp75:
.LBB5_44:
	.loc	2 531 26                        @ ../../../../Library/StdDriver/src/usbd.c:531:26
	ldr	r0, __arm_cp.5_2
	ldrb	r0, [r0, #2]
.Ltmp76:
	.loc	2 531 26 is_stmt 0              @ ../../../../Library/StdDriver/src/usbd.c:531:26
	cmp	r0, #1
	bne	.LBB5_46
	b	.LBB5_45
.LBB5_45:
.Ltmp77:
	.loc	2 533 45 is_stmt 1              @ ../../../../Library/StdDriver/src/usbd.c:533:45
	ldr	r1, __arm_cp.5_7
	movs	r0, #1
	strb	r0, [r1]
	.loc	2 535 17                        @ ../../../../Library/StdDriver/src/usbd.c:535:17
	b	.LBB5_46
.Ltmp78:
.LBB5_46:
	.loc	2 0 17 is_stmt 0                @ ../../../../Library/StdDriver/src/usbd.c:0:17
	b	.LBB5_47
.LBB5_47:
	ldr	r1, __arm_cp.5_5
	.loc	2 538 17 is_stmt 1              @ ../../../../Library/StdDriver/src/usbd.c:538:17
	ldr	r0, [r1]
	movs	r2, #128
	orrs	r0, r2
	str	r0, [r1]
	ldr	r1, __arm_cp.5_6
	movs	r0, #0
	.loc	2 539 17                        @ ../../../../Library/StdDriver/src/usbd.c:539:17
	str	r0, [r1]
	.loc	2 541 17                        @ ../../../../Library/StdDriver/src/usbd.c:541:17
	b	.LBB5_52
.Ltmp79:
.LBB5_48:
	.loc	2 546 45                        @ ../../../../Library/StdDriver/src/usbd.c:546:45
	ldr	r0, __arm_cp.5_2
	ldrb	r0, [r0, #2]
	.loc	2 546 43 is_stmt 0              @ ../../../../Library/StdDriver/src/usbd.c:546:43
	ldr	r1, __arm_cp.5_3
	str	r0, [r1]
.Ltmp80:
	.loc	2 548 21 is_stmt 1              @ ../../../../Library/StdDriver/src/usbd.c:548:21
	ldr	r0, __arm_cp.5_4
	ldr	r0, [r0]
.Ltmp81:
	.loc	2 548 21 is_stmt 0              @ ../../../../Library/StdDriver/src/usbd.c:548:21
	cbz	r0, .LBB5_50
	b	.LBB5_49
.LBB5_49:
.Ltmp82:
	.loc	2 550 21 is_stmt 1              @ ../../../../Library/StdDriver/src/usbd.c:550:21
	ldr	r0, __arm_cp.5_4
	ldr	r1, [r0]
	.loc	2 550 44 is_stmt 0              @ ../../../../Library/StdDriver/src/usbd.c:550:44
	ldr	r0, __arm_cp.5_3
	ldr	r0, [r0]
	.loc	2 550 21                        @ ../../../../Library/StdDriver/src/usbd.c:550:21
	blx	r1
	.loc	2 551 17 is_stmt 1              @ ../../../../Library/StdDriver/src/usbd.c:551:17
	b	.LBB5_50
.Ltmp83:
.LBB5_50:
	.loc	2 0 17 is_stmt 0                @ ../../../../Library/StdDriver/src/usbd.c:0:17
	ldr	r1, __arm_cp.5_5
	.loc	2 554 17 is_stmt 1              @ ../../../../Library/StdDriver/src/usbd.c:554:17
	ldr	r0, [r1]
	movs	r2, #128
	orrs	r0, r2
	str	r0, [r1]
	ldr	r1, __arm_cp.5_6
	movs	r0, #0
	.loc	2 555 17                        @ ../../../../Library/StdDriver/src/usbd.c:555:17
	str	r0, [r1]
	.loc	2 559 17                        @ ../../../../Library/StdDriver/src/usbd.c:559:17
	b	.LBB5_52
.Ltmp84:
.LBB5_51:
	.loc	2 0 17 is_stmt 0                @ ../../../../Library/StdDriver/src/usbd.c:0:17
	ldr	r1, __arm_cp.5_12
.Ltmp85:
	.loc	2 566 17 is_stmt 1              @ ../../../../Library/StdDriver/src/usbd.c:566:17
	ldr	r0, [r1]
	movs	r2, #2
	orrs	r0, r2
	str	r0, [r1]
	ldr	r1, __arm_cp.5_13
	.loc	2 567 17                        @ ../../../../Library/StdDriver/src/usbd.c:567:17
	ldr	r0, [r1]
	orrs	r0, r2
	str	r0, [r1]
	.loc	2 571 17                        @ ../../../../Library/StdDriver/src/usbd.c:571:17
	b	.LBB5_52
.Ltmp86:
.LBB5_52:
	.loc	2 0 17 is_stmt 0                @ ../../../../Library/StdDriver/src/usbd.c:0:17
	b	.LBB5_53
.LBB5_53:
	.loc	2 575 1 is_stmt 1               @ ../../../../Library/StdDriver/src/usbd.c:575:1
	add	sp, #24
	pop	{r7, pc}
.Ltmp87:
	.p2align	2
@ %bb.54:
	.loc	2 0 1 is_stmt 0                 @ ../../../../Library/StdDriver/src/usbd.c:0:1
__arm_cp.5_0:
	.long	s_USBD_pu8CtrlInPointer
.Lcpi_end17:
	.size	__arm_cp.5_0, .Lcpi_end17-__arm_cp.5_0
__arm_cp.5_1:
	.long	s_USBD_u32CtrlInSize
.Lcpi_end18:
	.size	__arm_cp.5_1, .Lcpi_end18-__arm_cp.5_1
__arm_cp.5_2:
	.long	g_USBD_au8SetupPacket
.Lcpi_end19:
	.size	__arm_cp.5_2, .Lcpi_end19-__arm_cp.5_2
__arm_cp.5_3:
	.long	s_USBD_u32UsbAltInterface
.Lcpi_end20:
	.size	__arm_cp.5_3, .Lcpi_end20-__arm_cp.5_3
__arm_cp.5_4:
	.long	g_USBD_pfnSetInterface
.Lcpi_end21:
	.size	__arm_cp.5_4, .Lcpi_end21-__arm_cp.5_4
__arm_cp.5_5:
	.long	1074529544                      @ 0x400c0508
.Lcpi_end22:
	.size	__arm_cp.5_5, .Lcpi_end22-__arm_cp.5_5
__arm_cp.5_6:
	.long	1074529540                      @ 0x400c0504
.Lcpi_end23:
	.size	__arm_cp.5_6, .Lcpi_end23-__arm_cp.5_6
__arm_cp.5_7:
	.long	g_USBD_u8RemoteWakeupEn
.Lcpi_end24:
	.size	__arm_cp.5_7, .Lcpi_end24-__arm_cp.5_7
__arm_cp.5_8:
	.long	s_USBD_u32UsbConfig
.Lcpi_end25:
	.size	__arm_cp.5_8, .Lcpi_end25-__arm_cp.5_8
__arm_cp.5_9:
	.long	g_USBD_pfnSetConfigCallback
.Lcpi_end26:
	.size	__arm_cp.5_9, .Lcpi_end26-__arm_cp.5_9
__arm_cp.5_10:
	.long	s_USBD_u32UsbAddr
.Lcpi_end27:
	.size	__arm_cp.5_10, .Lcpi_end27-__arm_cp.5_10
__arm_cp.5_11:
	.long	g_USBD_u32EpStallLock
.Lcpi_end28:
	.size	__arm_cp.5_11, .Lcpi_end28-__arm_cp.5_11
__arm_cp.5_12:
	.long	1074529548                      @ 0x400c050c
.Lcpi_end29:
	.size	__arm_cp.5_12, .Lcpi_end29-__arm_cp.5_12
__arm_cp.5_13:
	.long	1074529564                      @ 0x400c051c
.Lcpi_end30:
	.size	__arm_cp.5_13, .Lcpi_end30-__arm_cp.5_13
__arm_cp.5_14:
	.long	1074529536                      @ 0x400c0500
.Lcpi_end31:
	.size	__arm_cp.5_14, .Lcpi_end31-__arm_cp.5_14
__arm_cp.5_15:
	.long	1074528512                      @ 0x400c0100
.Lcpi_end32:
	.size	__arm_cp.5_15, .Lcpi_end32-__arm_cp.5_15
__arm_cp.5_16:
	.long	g_USBD_sINFO
.Lcpi_end33:
	.size	__arm_cp.5_16, .Lcpi_end33-__arm_cp.5_16
__arm_cp.5_17:
	.long	1074528513                      @ 0x400c0101
.Lcpi_end34:
	.size	__arm_cp.5_17, .Lcpi_end34-__arm_cp.5_17
.Lfunc_end5:
	.size	USBD_StandardRequest, .Lfunc_end5-USBD_StandardRequest
	.cfi_endproc
	.cantunwind
	.fnend
                                        @ -- End function
	.section	.text.USBD_GetDescriptor,"ax",%progbits
	.hidden	USBD_GetDescriptor              @ -- Begin function USBD_GetDescriptor
	.globl	USBD_GetDescriptor
	.p2align	2
	.type	USBD_GetDescriptor,%function
	.code	16                              @ @USBD_GetDescriptor
	.thumb_func
USBD_GetDescriptor:
.Lfunc_begin6:
	.loc	2 199 0 is_stmt 1               @ ../../../../Library/StdDriver/src/usbd.c:199:0
	.fnstart
	.cfi_startproc
@ %bb.0:
	.save	{r7, lr}
	push	{r7, lr}
	.cfi_def_cfa_offset 8
	.cfi_offset lr, -4
	.cfi_offset r7, -8
	.pad	#32
	sub	sp, #32
	.cfi_def_cfa_offset 40
.Ltmp88:
	.loc	2 202 29 prologue_end           @ ../../../../Library/StdDriver/src/usbd.c:202:29
	ldr	r1, __arm_cp.6_0
	movs	r0, #0
	strb	r0, [r1]
	.loc	2 204 14                        @ ../../../../Library/StdDriver/src/usbd.c:204:14
	str	r0, [sp, #28]
	.loc	2 205 16                        @ ../../../../Library/StdDriver/src/usbd.c:205:16
	ldr	r0, __arm_cp.6_1
	ldrb	r1, [r0, #7]
	.loc	2 205 14 is_stmt 0              @ ../../../../Library/StdDriver/src/usbd.c:205:14
	str	r1, [sp, #28]
	.loc	2 206 12 is_stmt 1              @ ../../../../Library/StdDriver/src/usbd.c:206:12
	ldr	r1, [sp, #28]
	lsls	r1, r1, #8
	str	r1, [sp, #28]
	.loc	2 207 16                        @ ../../../../Library/StdDriver/src/usbd.c:207:16
	ldrb	r2, [r0, #6]
	.loc	2 207 13 is_stmt 0              @ ../../../../Library/StdDriver/src/usbd.c:207:13
	ldr	r1, [sp, #28]
	adds	r1, r1, r2
	str	r1, [sp, #28]
	.loc	2 209 13 is_stmt 1              @ ../../../../Library/StdDriver/src/usbd.c:209:13
	ldrb	r0, [r0, #3]
	.loc	2 209 5 is_stmt 0               @ ../../../../Library/StdDriver/src/usbd.c:209:5
	subs	r0, r0, #1
	str	r0, [sp, #16]                   @ 4-byte Spill
	cmp	r0, #33
	bls	.LBB6_1
	b	.LBB6_35
.LBB6_1:
	.loc	2 0 5                           @ ../../../../Library/StdDriver/src/usbd.c:0:5
	ldr	r1, [sp, #16]                   @ 4-byte Reload
	lsls	r2, r1, #2
	adr	r0, .LJTI6_0
	adds	r0, r0, r2
	mov	pc, r0
@ %bb.2:
	.p2align	2
.LJTI6_0:
	b.w	.LBB6_3
	b.w	.LBB6_7
	b.w	.LBB6_28
	b.w	.LBB6_35
	b.w	.LBB6_35
	b.w	.LBB6_35
	b.w	.LBB6_35
	b.w	.LBB6_35
	b.w	.LBB6_35
	b.w	.LBB6_35
	b.w	.LBB6_35
	b.w	.LBB6_35
	b.w	.LBB6_35
	b.w	.LBB6_35
	b.w	.LBB6_12
	b.w	.LBB6_35
	b.w	.LBB6_35
	b.w	.LBB6_35
	b.w	.LBB6_35
	b.w	.LBB6_35
	b.w	.LBB6_35
	b.w	.LBB6_35
	b.w	.LBB6_35
	b.w	.LBB6_35
	b.w	.LBB6_35
	b.w	.LBB6_35
	b.w	.LBB6_35
	b.w	.LBB6_35
	b.w	.LBB6_35
	b.w	.LBB6_35
	b.w	.LBB6_35
	b.w	.LBB6_35
	b.w	.LBB6_19
	b.w	.LBB6_23
.LBB6_3:
.Ltmp89:
	.loc	2 214 22 is_stmt 1              @ ../../../../Library/StdDriver/src/usbd.c:214:22
	ldr	r0, [sp, #28]
	cmp	r0, #17
	bhi	.LBB6_5
	b	.LBB6_4
.LBB6_4:
	ldr	r0, [sp, #28]
	str	r0, [sp, #12]                   @ 4-byte Spill
	b	.LBB6_6
.LBB6_5:
	.loc	2 0 22 is_stmt 0                @ ../../../../Library/StdDriver/src/usbd.c:0:22
	movs	r0, #18
	.loc	2 214 22                        @ ../../../../Library/StdDriver/src/usbd.c:214:22
	str	r0, [sp, #12]                   @ 4-byte Spill
	b	.LBB6_6
.LBB6_6:
	ldr	r0, [sp, #12]                   @ 4-byte Reload
	.loc	2 214 20                        @ ../../../../Library/StdDriver/src/usbd.c:214:20
	str	r0, [sp, #28]
	.loc	2 217 43 is_stmt 1              @ ../../../../Library/StdDriver/src/usbd.c:217:43
	ldr	r0, __arm_cp.6_4
	ldr	r0, [r0]
	.loc	2 217 57 is_stmt 0              @ ../../../../Library/StdDriver/src/usbd.c:217:57
	ldr	r0, [r0]
	.loc	2 217 69                        @ ../../../../Library/StdDriver/src/usbd.c:217:69
	ldr	r1, [sp, #28]
	.loc	2 217 13                        @ ../../../../Library/StdDriver/src/usbd.c:217:13
	bl	USBD_PrepareCtrlIn
	.loc	2 219 13 is_stmt 1              @ ../../../../Library/StdDriver/src/usbd.c:219:13
	b	.LBB6_36
.Ltmp90:
.LBB6_7:
	.loc	2 228 27                        @ ../../../../Library/StdDriver/src/usbd.c:228:27
	ldr	r0, __arm_cp.6_4
	ldr	r1, [r0]
	.loc	2 228 41 is_stmt 0              @ ../../../../Library/StdDriver/src/usbd.c:228:41
	ldr	r1, [r1, #4]
	.loc	2 228 27                        @ ../../../../Library/StdDriver/src/usbd.c:228:27
	ldrb	r1, [r1, #3]
	.loc	2 228 25                        @ ../../../../Library/StdDriver/src/usbd.c:228:25
	str	r1, [sp, #24]
	.loc	2 229 27 is_stmt 1              @ ../../../../Library/StdDriver/src/usbd.c:229:27
	ldr	r0, [r0]
	.loc	2 229 41 is_stmt 0              @ ../../../../Library/StdDriver/src/usbd.c:229:41
	ldr	r0, [r0, #4]
	.loc	2 229 27                        @ ../../../../Library/StdDriver/src/usbd.c:229:27
	ldrb	r0, [r0, #2]
	.loc	2 229 61                        @ ../../../../Library/StdDriver/src/usbd.c:229:61
	ldr	r1, [sp, #24]
	.loc	2 229 73                        @ ../../../../Library/StdDriver/src/usbd.c:229:73
	lsls	r1, r1, #8
	.loc	2 229 58                        @ ../../../../Library/StdDriver/src/usbd.c:229:58
	adds	r0, r0, r1
	.loc	2 229 25                        @ ../../../../Library/StdDriver/src/usbd.c:229:25
	str	r0, [sp, #24]
.Ltmp91:
	.loc	2 233 17 is_stmt 1              @ ../../../../Library/StdDriver/src/usbd.c:233:17
	ldr	r0, [sp, #28]
	.loc	2 233 26 is_stmt 0              @ ../../../../Library/StdDriver/src/usbd.c:233:26
	ldr	r1, [sp, #24]
.Ltmp92:
	.loc	2 233 17                        @ ../../../../Library/StdDriver/src/usbd.c:233:17
	cmp	r0, r1
	bls	.LBB6_11
	b	.LBB6_8
.LBB6_8:
.Ltmp93:
	.loc	2 235 26 is_stmt 1              @ ../../../../Library/StdDriver/src/usbd.c:235:26
	ldr	r0, [sp, #24]
	.loc	2 235 24 is_stmt 0              @ ../../../../Library/StdDriver/src/usbd.c:235:24
	str	r0, [sp, #28]
.Ltmp94:
	.loc	2 237 22 is_stmt 1              @ ../../../../Library/StdDriver/src/usbd.c:237:22
	ldr	r0, [sp, #28]
	.loc	2 237 31 is_stmt 0              @ ../../../../Library/StdDriver/src/usbd.c:237:31
	ldr	r1, __arm_cp.6_5
	ldr	r1, [r1]
	.loc	2 237 29                        @ ../../../../Library/StdDriver/src/usbd.c:237:29
	udiv	r2, r0, r1
	muls	r1, r2, r1
	subs	r0, r0, r1
.Ltmp95:
	.loc	2 237 21                        @ ../../../../Library/StdDriver/src/usbd.c:237:21
	cbnz	r0, .LBB6_10
	b	.LBB6_9
.LBB6_9:
.Ltmp96:
	.loc	2 239 45 is_stmt 1              @ ../../../../Library/StdDriver/src/usbd.c:239:45
	ldr	r1, __arm_cp.6_0
	movs	r0, #1
	strb	r0, [r1]
	.loc	2 240 17                        @ ../../../../Library/StdDriver/src/usbd.c:240:17
	b	.LBB6_10
.Ltmp97:
.LBB6_10:
	.loc	2 241 13                        @ ../../../../Library/StdDriver/src/usbd.c:241:13
	b	.LBB6_11
.Ltmp98:
.LBB6_11:
	.loc	2 245 43                        @ ../../../../Library/StdDriver/src/usbd.c:245:43
	ldr	r0, __arm_cp.6_4
	ldr	r0, [r0]
	.loc	2 245 57 is_stmt 0              @ ../../../../Library/StdDriver/src/usbd.c:245:57
	ldr	r0, [r0, #4]
	.loc	2 245 72                        @ ../../../../Library/StdDriver/src/usbd.c:245:72
	ldr	r1, [sp, #28]
	.loc	2 245 13                        @ ../../../../Library/StdDriver/src/usbd.c:245:13
	bl	USBD_PrepareCtrlIn
	.loc	2 247 13 is_stmt 1              @ ../../../../Library/StdDriver/src/usbd.c:247:13
	b	.LBB6_36
.Ltmp99:
.LBB6_12:
	.loc	2 254 17                        @ ../../../../Library/StdDriver/src/usbd.c:254:17
	ldr	r0, __arm_cp.6_4
	ldr	r0, [r0]
	.loc	2 254 31 is_stmt 0              @ ../../../../Library/StdDriver/src/usbd.c:254:31
	ldr	r0, [r0, #16]
.Ltmp100:
	.loc	2 254 17                        @ ../../../../Library/StdDriver/src/usbd.c:254:17
	cbz	r0, .LBB6_17
	b	.LBB6_13
.LBB6_13:
.Ltmp101:
	.loc	2 256 26 is_stmt 1              @ ../../../../Library/StdDriver/src/usbd.c:256:26
	ldr	r0, [sp, #28]
	cmp	r0, #11
	bhi	.LBB6_15
	b	.LBB6_14
.LBB6_14:
	ldr	r0, [sp, #28]
	str	r0, [sp, #8]                    @ 4-byte Spill
	b	.LBB6_16
.LBB6_15:
	.loc	2 0 26 is_stmt 0                @ ../../../../Library/StdDriver/src/usbd.c:0:26
	movs	r0, #12
	.loc	2 256 26                        @ ../../../../Library/StdDriver/src/usbd.c:256:26
	str	r0, [sp, #8]                    @ 4-byte Spill
	b	.LBB6_16
.LBB6_16:
	ldr	r0, [sp, #8]                    @ 4-byte Reload
	.loc	2 256 24                        @ ../../../../Library/StdDriver/src/usbd.c:256:24
	str	r0, [sp, #28]
	.loc	2 257 47 is_stmt 1              @ ../../../../Library/StdDriver/src/usbd.c:257:47
	ldr	r0, __arm_cp.6_4
	ldr	r0, [r0]
	.loc	2 257 61 is_stmt 0              @ ../../../../Library/StdDriver/src/usbd.c:257:61
	ldr	r0, [r0, #16]
	.loc	2 257 73                        @ ../../../../Library/StdDriver/src/usbd.c:257:73
	ldr	r1, [sp, #28]
	.loc	2 257 17                        @ ../../../../Library/StdDriver/src/usbd.c:257:17
	bl	USBD_PrepareCtrlIn
	.loc	2 258 13 is_stmt 1              @ ../../../../Library/StdDriver/src/usbd.c:258:13
	b	.LBB6_18
.Ltmp102:
.LBB6_17:
	.loc	2 0 13 is_stmt 0                @ ../../../../Library/StdDriver/src/usbd.c:0:13
	ldr	r1, __arm_cp.6_2
.Ltmp103:
	.loc	2 261 17 is_stmt 1              @ ../../../../Library/StdDriver/src/usbd.c:261:17
	ldr	r0, [r1]
	movs	r2, #2
	orrs	r0, r2
	str	r0, [r1]
	ldr	r1, __arm_cp.6_3
	.loc	2 262 17                        @ ../../../../Library/StdDriver/src/usbd.c:262:17
	ldr	r0, [r1]
	orrs	r0, r2
	str	r0, [r1]
	b	.LBB6_18
.Ltmp104:
.LBB6_18:
	.loc	2 265 13                        @ ../../../../Library/StdDriver/src/usbd.c:265:13
	b	.LBB6_36
.Ltmp105:
.LBB6_19:
	.loc	2 274 22                        @ ../../../../Library/StdDriver/src/usbd.c:274:22
	ldr	r0, [sp, #28]
	cmp	r0, #8
	bhi	.LBB6_21
	b	.LBB6_20
.LBB6_20:
	ldr	r0, [sp, #28]
	str	r0, [sp, #4]                    @ 4-byte Spill
	b	.LBB6_22
.LBB6_21:
	.loc	2 0 22 is_stmt 0                @ ../../../../Library/StdDriver/src/usbd.c:0:22
	movs	r0, #9
	.loc	2 274 22                        @ ../../../../Library/StdDriver/src/usbd.c:274:22
	str	r0, [sp, #4]                    @ 4-byte Spill
	b	.LBB6_22
.LBB6_22:
	ldr	r0, [sp, #4]                    @ 4-byte Reload
	.loc	2 274 20                        @ ../../../../Library/StdDriver/src/usbd.c:274:20
	str	r0, [sp, #28]
	.loc	2 277 35 is_stmt 1              @ ../../../../Library/StdDriver/src/usbd.c:277:35
	ldr	r0, __arm_cp.6_4
	ldr	r1, [r0]
	.loc	2 277 49 is_stmt 0              @ ../../../../Library/StdDriver/src/usbd.c:277:49
	ldr	r1, [r1, #24]
	.loc	2 277 70                        @ ../../../../Library/StdDriver/src/usbd.c:277:70
	ldr	r2, __arm_cp.6_1
	ldrb	r2, [r2, #4]
	.loc	2 277 35                        @ ../../../../Library/StdDriver/src/usbd.c:277:35
	lsls	r2, r2, #2
	ldr	r1, [r1, r2]
	.loc	2 277 33                        @ ../../../../Library/StdDriver/src/usbd.c:277:33
	str	r1, [sp, #20]
	.loc	2 278 44 is_stmt 1              @ ../../../../Library/StdDriver/src/usbd.c:278:44
	ldr	r0, [r0]
	.loc	2 278 58 is_stmt 0              @ ../../../../Library/StdDriver/src/usbd.c:278:58
	ldr	r0, [r0, #4]
	.loc	2 278 72                        @ ../../../../Library/StdDriver/src/usbd.c:278:72
	ldr	r1, [sp, #20]
	.loc	2 278 44                        @ ../../../../Library/StdDriver/src/usbd.c:278:44
	adds	r0, r0, r1
	.loc	2 278 94                        @ ../../../../Library/StdDriver/src/usbd.c:278:94
	ldr	r1, [sp, #28]
	.loc	2 278 13                        @ ../../../../Library/StdDriver/src/usbd.c:278:13
	bl	USBD_PrepareCtrlIn
	.loc	2 280 13 is_stmt 1              @ ../../../../Library/StdDriver/src/usbd.c:280:13
	b	.LBB6_36
.Ltmp106:
.LBB6_23:
	.loc	2 288 17                        @ ../../../../Library/StdDriver/src/usbd.c:288:17
	ldr	r0, [sp, #28]
	.loc	2 288 26 is_stmt 0              @ ../../../../Library/StdDriver/src/usbd.c:288:26
	ldr	r1, __arm_cp.6_4
	ldr	r1, [r1]
	.loc	2 288 40                        @ ../../../../Library/StdDriver/src/usbd.c:288:40
	ldr	r1, [r1, #20]
	.loc	2 288 58                        @ ../../../../Library/StdDriver/src/usbd.c:288:58
	ldr	r2, __arm_cp.6_1
	ldrb	r2, [r2, #4]
	.loc	2 288 26                        @ ../../../../Library/StdDriver/src/usbd.c:288:26
	lsls	r2, r2, #2
	ldr	r1, [r1, r2]
.Ltmp107:
	.loc	2 288 17                        @ ../../../../Library/StdDriver/src/usbd.c:288:17
	cmp	r0, r1
	bls	.LBB6_27
	b	.LBB6_24
.LBB6_24:
.Ltmp108:
	.loc	2 290 26 is_stmt 1              @ ../../../../Library/StdDriver/src/usbd.c:290:26
	ldr	r0, __arm_cp.6_4
	ldr	r0, [r0]
	.loc	2 290 40 is_stmt 0              @ ../../../../Library/StdDriver/src/usbd.c:290:40
	ldr	r0, [r0, #20]
	.loc	2 290 58                        @ ../../../../Library/StdDriver/src/usbd.c:290:58
	ldr	r1, __arm_cp.6_1
	ldrb	r1, [r1, #4]
	.loc	2 290 26                        @ ../../../../Library/StdDriver/src/usbd.c:290:26
	lsls	r1, r1, #2
	ldr	r0, [r0, r1]
	.loc	2 290 24                        @ ../../../../Library/StdDriver/src/usbd.c:290:24
	str	r0, [sp, #28]
.Ltmp109:
	.loc	2 292 22 is_stmt 1              @ ../../../../Library/StdDriver/src/usbd.c:292:22
	ldr	r0, [sp, #28]
	.loc	2 292 31 is_stmt 0              @ ../../../../Library/StdDriver/src/usbd.c:292:31
	ldr	r1, __arm_cp.6_5
	ldr	r1, [r1]
	.loc	2 292 29                        @ ../../../../Library/StdDriver/src/usbd.c:292:29
	udiv	r2, r0, r1
	muls	r1, r2, r1
	subs	r0, r0, r1
.Ltmp110:
	.loc	2 292 21                        @ ../../../../Library/StdDriver/src/usbd.c:292:21
	cbnz	r0, .LBB6_26
	b	.LBB6_25
.LBB6_25:
.Ltmp111:
	.loc	2 294 45 is_stmt 1              @ ../../../../Library/StdDriver/src/usbd.c:294:45
	ldr	r1, __arm_cp.6_0
	movs	r0, #1
	strb	r0, [r1]
	.loc	2 295 17                        @ ../../../../Library/StdDriver/src/usbd.c:295:17
	b	.LBB6_26
.Ltmp112:
.LBB6_26:
	.loc	2 296 13                        @ ../../../../Library/StdDriver/src/usbd.c:296:13
	b	.LBB6_27
.Ltmp113:
.LBB6_27:
	.loc	2 298 43                        @ ../../../../Library/StdDriver/src/usbd.c:298:43
	ldr	r0, __arm_cp.6_4
	ldr	r0, [r0]
	.loc	2 298 57 is_stmt 0              @ ../../../../Library/StdDriver/src/usbd.c:298:57
	ldr	r0, [r0, #12]
	.loc	2 298 74                        @ ../../../../Library/StdDriver/src/usbd.c:298:74
	ldr	r1, __arm_cp.6_1
	ldrb	r1, [r1, #4]
	.loc	2 298 43                        @ ../../../../Library/StdDriver/src/usbd.c:298:43
	lsls	r1, r1, #2
	ldr	r0, [r0, r1]
	.loc	2 298 101                       @ ../../../../Library/StdDriver/src/usbd.c:298:101
	ldr	r1, [sp, #28]
	.loc	2 298 13                        @ ../../../../Library/StdDriver/src/usbd.c:298:13
	bl	USBD_PrepareCtrlIn
	.loc	2 299 13 is_stmt 1              @ ../../../../Library/StdDriver/src/usbd.c:299:13
	b	.LBB6_36
.Ltmp114:
.LBB6_28:
	.loc	2 306 17                        @ ../../../../Library/StdDriver/src/usbd.c:306:17
	ldr	r0, __arm_cp.6_1
	ldrb	r0, [r0, #2]
.Ltmp115:
	.loc	2 306 17 is_stmt 0              @ ../../../../Library/StdDriver/src/usbd.c:306:17
	cmp	r0, #3
	bhi	.LBB6_34
	b	.LBB6_29
.LBB6_29:
.Ltmp116:
	.loc	2 308 21 is_stmt 1              @ ../../../../Library/StdDriver/src/usbd.c:308:21
	ldr	r0, [sp, #28]
	.loc	2 308 30 is_stmt 0              @ ../../../../Library/StdDriver/src/usbd.c:308:30
	ldr	r1, __arm_cp.6_4
	ldr	r1, [r1]
	.loc	2 308 44                        @ ../../../../Library/StdDriver/src/usbd.c:308:44
	ldr	r1, [r1, #8]
	.loc	2 308 58                        @ ../../../../Library/StdDriver/src/usbd.c:308:58
	ldr	r2, __arm_cp.6_1
	ldrb	r2, [r2, #2]
	.loc	2 308 30                        @ ../../../../Library/StdDriver/src/usbd.c:308:30
	lsls	r2, r2, #2
	ldr	r1, [r1, r2]
	ldrb	r1, [r1]
.Ltmp117:
	.loc	2 308 21                        @ ../../../../Library/StdDriver/src/usbd.c:308:21
	cmp	r0, r1
	bls	.LBB6_33
	b	.LBB6_30
.LBB6_30:
.Ltmp118:
	.loc	2 310 30 is_stmt 1              @ ../../../../Library/StdDriver/src/usbd.c:310:30
	ldr	r0, __arm_cp.6_4
	ldr	r0, [r0]
	.loc	2 310 44 is_stmt 0              @ ../../../../Library/StdDriver/src/usbd.c:310:44
	ldr	r0, [r0, #8]
	.loc	2 310 58                        @ ../../../../Library/StdDriver/src/usbd.c:310:58
	ldr	r1, __arm_cp.6_1
	ldrb	r1, [r1, #2]
	.loc	2 310 30                        @ ../../../../Library/StdDriver/src/usbd.c:310:30
	lsls	r1, r1, #2
	ldr	r0, [r0, r1]
	ldrb	r0, [r0]
	.loc	2 310 28                        @ ../../../../Library/StdDriver/src/usbd.c:310:28
	str	r0, [sp, #28]
.Ltmp119:
	.loc	2 312 26 is_stmt 1              @ ../../../../Library/StdDriver/src/usbd.c:312:26
	ldr	r0, [sp, #28]
	.loc	2 312 35 is_stmt 0              @ ../../../../Library/StdDriver/src/usbd.c:312:35
	ldr	r1, __arm_cp.6_5
	ldr	r1, [r1]
	.loc	2 312 33                        @ ../../../../Library/StdDriver/src/usbd.c:312:33
	udiv	r2, r0, r1
	muls	r1, r2, r1
	subs	r0, r0, r1
.Ltmp120:
	.loc	2 312 25                        @ ../../../../Library/StdDriver/src/usbd.c:312:25
	cbnz	r0, .LBB6_32
	b	.LBB6_31
.LBB6_31:
.Ltmp121:
	.loc	2 314 49 is_stmt 1              @ ../../../../Library/StdDriver/src/usbd.c:314:49
	ldr	r1, __arm_cp.6_0
	movs	r0, #1
	strb	r0, [r1]
	.loc	2 315 21                        @ ../../../../Library/StdDriver/src/usbd.c:315:21
	b	.LBB6_32
.Ltmp122:
.LBB6_32:
	.loc	2 316 17                        @ ../../../../Library/StdDriver/src/usbd.c:316:17
	b	.LBB6_33
.Ltmp123:
.LBB6_33:
	.loc	2 320 47                        @ ../../../../Library/StdDriver/src/usbd.c:320:47
	ldr	r0, __arm_cp.6_4
	ldr	r0, [r0]
	.loc	2 320 61 is_stmt 0              @ ../../../../Library/StdDriver/src/usbd.c:320:61
	ldr	r0, [r0, #8]
	.loc	2 320 75                        @ ../../../../Library/StdDriver/src/usbd.c:320:75
	ldr	r1, __arm_cp.6_1
	ldrb	r1, [r1, #2]
	.loc	2 320 47                        @ ../../../../Library/StdDriver/src/usbd.c:320:47
	lsls	r1, r1, #2
	ldr	r0, [r0, r1]
	.loc	2 320 102                       @ ../../../../Library/StdDriver/src/usbd.c:320:102
	ldr	r1, [sp, #28]
	.loc	2 320 17                        @ ../../../../Library/StdDriver/src/usbd.c:320:17
	bl	USBD_PrepareCtrlIn
	.loc	2 323 17 is_stmt 1              @ ../../../../Library/StdDriver/src/usbd.c:323:17
	b	.LBB6_36
.Ltmp124:
.LBB6_34:
	.loc	2 0 17 is_stmt 0                @ ../../../../Library/StdDriver/src/usbd.c:0:17
	ldr	r1, __arm_cp.6_2
.Ltmp125:
	.loc	2 328 17 is_stmt 1              @ ../../../../Library/StdDriver/src/usbd.c:328:17
	ldr	r0, [r1]
	movs	r2, #2
	orrs	r0, r2
	str	r0, [r1]
	ldr	r1, __arm_cp.6_3
	.loc	2 329 17                        @ ../../../../Library/StdDriver/src/usbd.c:329:17
	ldr	r0, [r1]
	orrs	r0, r2
	str	r0, [r1]
	.loc	2 333 17                        @ ../../../../Library/StdDriver/src/usbd.c:333:17
	b	.LBB6_36
.Ltmp126:
.LBB6_35:
	.loc	2 0 17 is_stmt 0                @ ../../../../Library/StdDriver/src/usbd.c:0:17
	ldr	r1, __arm_cp.6_2
	.loc	2 339 13 is_stmt 1              @ ../../../../Library/StdDriver/src/usbd.c:339:13
	ldr	r0, [r1]
	movs	r2, #2
	orrs	r0, r2
	str	r0, [r1]
	ldr	r1, __arm_cp.6_3
	.loc	2 340 13                        @ ../../../../Library/StdDriver/src/usbd.c:340:13
	ldr	r0, [r1]
	orrs	r0, r2
	str	r0, [r1]
	.loc	2 344 13                        @ ../../../../Library/StdDriver/src/usbd.c:344:13
	b	.LBB6_36
.Ltmp127:
.LBB6_36:
	.loc	2 346 1                         @ ../../../../Library/StdDriver/src/usbd.c:346:1
	add	sp, #32
	pop	{r7, pc}
.Ltmp128:
	.p2align	2
@ %bb.37:
	.loc	2 0 1 is_stmt 0                 @ ../../../../Library/StdDriver/src/usbd.c:0:1
__arm_cp.6_0:
	.long	s_USBD_u8CtrlInZeroFlag
.Lcpi_end35:
	.size	__arm_cp.6_0, .Lcpi_end35-__arm_cp.6_0
__arm_cp.6_1:
	.long	g_USBD_au8SetupPacket
.Lcpi_end36:
	.size	__arm_cp.6_1, .Lcpi_end36-__arm_cp.6_1
__arm_cp.6_2:
	.long	1074529548                      @ 0x400c050c
.Lcpi_end37:
	.size	__arm_cp.6_2, .Lcpi_end37-__arm_cp.6_2
__arm_cp.6_3:
	.long	1074529564                      @ 0x400c051c
.Lcpi_end38:
	.size	__arm_cp.6_3, .Lcpi_end38-__arm_cp.6_3
__arm_cp.6_4:
	.long	g_USBD_sINFO
.Lcpi_end39:
	.size	__arm_cp.6_4, .Lcpi_end39-__arm_cp.6_4
__arm_cp.6_5:
	.long	s_USBD_u32CtrlMaxPktSize
.Lcpi_end40:
	.size	__arm_cp.6_5, .Lcpi_end40-__arm_cp.6_5
.Lfunc_end6:
	.size	USBD_GetDescriptor, .Lfunc_end6-USBD_GetDescriptor
	.cfi_endproc
	.cantunwind
	.fnend
                                        @ -- End function
	.section	.text.USBD_PrepareCtrlIn,"ax",%progbits
	.hidden	USBD_PrepareCtrlIn              @ -- Begin function USBD_PrepareCtrlIn
	.globl	USBD_PrepareCtrlIn
	.p2align	2
	.type	USBD_PrepareCtrlIn,%function
	.code	16                              @ @USBD_PrepareCtrlIn
	.thumb_func
USBD_PrepareCtrlIn:
.Lfunc_begin7:
	.loc	2 589 0 is_stmt 1               @ ../../../../Library/StdDriver/src/usbd.c:589:0
	.fnstart
	.cfi_startproc
@ %bb.0:
	.save	{r7, lr}
	push	{r7, lr}
	.cfi_def_cfa_offset 8
	.cfi_offset lr, -4
	.cfi_offset r7, -8
	.pad	#16
	sub	sp, #16
	.cfi_def_cfa_offset 24
	str	r0, [sp, #12]
	str	r1, [sp, #8]
.Ltmp129:
	.loc	2 592 9 prologue_end            @ ../../../../Library/StdDriver/src/usbd.c:592:9
	ldr	r0, [sp, #8]
	.loc	2 592 19 is_stmt 0              @ ../../../../Library/StdDriver/src/usbd.c:592:19
	ldr	r1, __arm_cp.7_0
	ldr	r1, [r1]
.Ltmp130:
	.loc	2 592 9                         @ ../../../../Library/StdDriver/src/usbd.c:592:9
	cmp	r0, r1
	bls	.LBB7_2
	b	.LBB7_1
.LBB7_1:
.Ltmp131:
	.loc	2 595 35 is_stmt 1              @ ../../../../Library/StdDriver/src/usbd.c:595:35
	ldr	r0, [sp, #12]
	.loc	2 595 44 is_stmt 0              @ ../../../../Library/StdDriver/src/usbd.c:595:44
	ldr	r2, __arm_cp.7_0
	str	r2, [sp, #4]                    @ 4-byte Spill
	ldr	r1, [r2]
	.loc	2 595 42                        @ ../../../../Library/StdDriver/src/usbd.c:595:42
	adds	r0, r0, r1
	.loc	2 595 33                        @ ../../../../Library/StdDriver/src/usbd.c:595:33
	ldr	r1, __arm_cp.7_1
	str	r0, [r1]
	.loc	2 596 32 is_stmt 1              @ ../../../../Library/StdDriver/src/usbd.c:596:32
	ldr	r0, [sp, #8]
	.loc	2 596 42 is_stmt 0              @ ../../../../Library/StdDriver/src/usbd.c:596:42
	ldr	r1, [r2]
	.loc	2 596 40                        @ ../../../../Library/StdDriver/src/usbd.c:596:40
	subs	r0, r0, r1
	.loc	2 596 30                        @ ../../../../Library/StdDriver/src/usbd.c:596:30
	ldr	r1, __arm_cp.7_2
	str	r0, [r1]
	ldr	r1, __arm_cp.7_3
	.loc	2 597 9 is_stmt 1               @ ../../../../Library/StdDriver/src/usbd.c:597:9
	ldr	r0, [r1]
	movs	r3, #128
	orrs	r0, r3
	str	r0, [r1]
	ldr	r0, __arm_cp.7_4
	.loc	2 598 49                        @ ../../../../Library/StdDriver/src/usbd.c:598:49
	ldr	r0, [r0]
	ldr	r1, __arm_cp.7_5
	.loc	2 598 47 is_stmt 0              @ ../../../../Library/StdDriver/src/usbd.c:598:47
	adds	r0, r0, r1
	.loc	2 598 76                        @ ../../../../Library/StdDriver/src/usbd.c:598:76
	ldr	r1, [sp, #12]
	.loc	2 598 84                        @ ../../../../Library/StdDriver/src/usbd.c:598:84
	ldr	r2, [r2]
	.loc	2 598 9                         @ ../../../../Library/StdDriver/src/usbd.c:598:9
	bl	USBD_MemCopy
	ldr	r0, [sp, #4]                    @ 4-byte Reload
	.loc	2 599 9 is_stmt 1               @ ../../../../Library/StdDriver/src/usbd.c:599:9
	ldr	r0, [r0]
	ldr	r1, __arm_cp.7_6
	str	r0, [r1]
	.loc	2 600 5                         @ ../../../../Library/StdDriver/src/usbd.c:600:5
	b	.LBB7_3
.Ltmp132:
.LBB7_2:
	.loc	2 604 33                        @ ../../../../Library/StdDriver/src/usbd.c:604:33
	ldr	r1, __arm_cp.7_1
	movs	r0, #0
	str	r0, [r1]
	.loc	2 605 30                        @ ../../../../Library/StdDriver/src/usbd.c:605:30
	ldr	r1, __arm_cp.7_2
	str	r0, [r1]
	ldr	r1, __arm_cp.7_3
	.loc	2 607 9                         @ ../../../../Library/StdDriver/src/usbd.c:607:9
	ldr	r0, [r1]
	movs	r2, #128
	orrs	r0, r2
	str	r0, [r1]
	ldr	r0, __arm_cp.7_4
	.loc	2 608 49                        @ ../../../../Library/StdDriver/src/usbd.c:608:49
	ldr	r0, [r0]
	ldr	r1, __arm_cp.7_5
	.loc	2 608 47 is_stmt 0              @ ../../../../Library/StdDriver/src/usbd.c:608:47
	adds	r0, r0, r1
	.loc	2 608 76                        @ ../../../../Library/StdDriver/src/usbd.c:608:76
	ldr	r1, [sp, #12]
	.loc	2 608 84                        @ ../../../../Library/StdDriver/src/usbd.c:608:84
	ldr	r2, [sp, #8]
	.loc	2 608 9                         @ ../../../../Library/StdDriver/src/usbd.c:608:9
	bl	USBD_MemCopy
	.loc	2 609 9 is_stmt 1               @ ../../../../Library/StdDriver/src/usbd.c:609:9
	ldr	r0, [sp, #8]
	ldr	r1, __arm_cp.7_6
	str	r0, [r1]
	b	.LBB7_3
.Ltmp133:
.LBB7_3:
	.loc	2 611 1                         @ ../../../../Library/StdDriver/src/usbd.c:611:1
	add	sp, #16
	pop	{r7, pc}
.Ltmp134:
	.p2align	2
@ %bb.4:
	.loc	2 0 1 is_stmt 0                 @ ../../../../Library/StdDriver/src/usbd.c:0:1
__arm_cp.7_0:
	.long	s_USBD_u32CtrlMaxPktSize
.Lcpi_end41:
	.size	__arm_cp.7_0, .Lcpi_end41-__arm_cp.7_0
__arm_cp.7_1:
	.long	s_USBD_pu8CtrlInPointer
.Lcpi_end42:
	.size	__arm_cp.7_1, .Lcpi_end42-__arm_cp.7_1
__arm_cp.7_2:
	.long	s_USBD_u32CtrlInSize
.Lcpi_end43:
	.size	__arm_cp.7_2, .Lcpi_end43-__arm_cp.7_2
__arm_cp.7_3:
	.long	1074529544                      @ 0x400c0508
.Lcpi_end44:
	.size	__arm_cp.7_3, .Lcpi_end44-__arm_cp.7_3
__arm_cp.7_4:
	.long	1074529536                      @ 0x400c0500
.Lcpi_end45:
	.size	__arm_cp.7_4, .Lcpi_end45-__arm_cp.7_4
__arm_cp.7_5:
	.long	1074528512                      @ 0x400c0100
.Lcpi_end46:
	.size	__arm_cp.7_5, .Lcpi_end46-__arm_cp.7_5
__arm_cp.7_6:
	.long	1074529540                      @ 0x400c0504
.Lcpi_end47:
	.size	__arm_cp.7_6, .Lcpi_end47-__arm_cp.7_6
.Lfunc_end7:
	.size	USBD_PrepareCtrlIn, .Lfunc_end7-USBD_PrepareCtrlIn
	.cfi_endproc
	.cantunwind
	.fnend
                                        @ -- End function
	.section	.text.USBD_PrepareCtrlOut,"ax",%progbits
	.hidden	USBD_PrepareCtrlOut             @ -- Begin function USBD_PrepareCtrlOut
	.globl	USBD_PrepareCtrlOut
	.p2align	2
	.type	USBD_PrepareCtrlOut,%function
	.code	16                              @ @USBD_PrepareCtrlOut
	.thumb_func
USBD_PrepareCtrlOut:
.Lfunc_begin8:
	.loc	2 684 0 is_stmt 1               @ ../../../../Library/StdDriver/src/usbd.c:684:0
	.fnstart
	.cfi_startproc
@ %bb.0:
	.pad	#8
	sub	sp, #8
	.cfi_def_cfa_offset 8
	str	r0, [sp, #4]
	str	r1, [sp]
.Ltmp135:
	.loc	2 685 32 prologue_end           @ ../../../../Library/StdDriver/src/usbd.c:685:32
	ldr	r0, [sp, #4]
	.loc	2 685 30 is_stmt 0              @ ../../../../Library/StdDriver/src/usbd.c:685:30
	ldr	r1, __arm_cp.8_0
	str	r0, [r1]
	.loc	2 686 27 is_stmt 1              @ ../../../../Library/StdDriver/src/usbd.c:686:27
	ldr	r1, __arm_cp.8_1
	movs	r0, #0
	str	r0, [r1]
	.loc	2 687 34                        @ ../../../../Library/StdDriver/src/usbd.c:687:34
	ldr	r0, [sp]
	.loc	2 687 32 is_stmt 0              @ ../../../../Library/StdDriver/src/usbd.c:687:32
	ldr	r1, __arm_cp.8_2
	str	r0, [r1]
	.loc	2 688 5 is_stmt 1               @ ../../../../Library/StdDriver/src/usbd.c:688:5
	ldr	r0, __arm_cp.8_3
	ldr	r0, [r0]
	ldr	r1, __arm_cp.8_4
	str	r0, [r1]
	.loc	2 689 1                         @ ../../../../Library/StdDriver/src/usbd.c:689:1
	add	sp, #8
	bx	lr
.Ltmp136:
	.p2align	2
@ %bb.1:
	.loc	2 0 1 is_stmt 0                 @ ../../../../Library/StdDriver/src/usbd.c:0:1
__arm_cp.8_0:
	.long	s_USBD_pu8CtrlOutPointer
.Lcpi_end48:
	.size	__arm_cp.8_0, .Lcpi_end48-__arm_cp.8_0
__arm_cp.8_1:
	.long	s_USBD_u32CtrlOutSize
.Lcpi_end49:
	.size	__arm_cp.8_1, .Lcpi_end49-__arm_cp.8_1
__arm_cp.8_2:
	.long	s_USBD_u32CtrlOutSizeLimit
.Lcpi_end50:
	.size	__arm_cp.8_2, .Lcpi_end50-__arm_cp.8_2
__arm_cp.8_3:
	.long	s_USBD_u32CtrlMaxPktSize
.Lcpi_end51:
	.size	__arm_cp.8_3, .Lcpi_end51-__arm_cp.8_3
__arm_cp.8_4:
	.long	1074529556                      @ 0x400c0514
.Lcpi_end52:
	.size	__arm_cp.8_4, .Lcpi_end52-__arm_cp.8_4
.Lfunc_end8:
	.size	USBD_PrepareCtrlOut, .Lfunc_end8-USBD_PrepareCtrlOut
	.cfi_endproc
	.cantunwind
	.fnend
                                        @ -- End function
	.section	.text.USBD_GetStall,"ax",%progbits
	.p2align	2                               @ -- Begin function USBD_GetStall
	.type	USBD_GetStall,%function
	.code	16                              @ @USBD_GetStall
	.thumb_func
USBD_GetStall:
.Lfunc_begin9:
	.loc	3 645 0 is_stmt 1               @ ../../../../Library/StdDriver/inc\usbd.h:645:0
	.fnstart
	.cfi_startproc
@ %bb.0:
	.pad	#16
	sub	sp, #16
	.cfi_def_cfa_offset 16
                                        @ kill: def $r1 killed $r0
	add	r1, sp, #12
	strb	r0, [r1]
	movs	r0, #0
.Ltmp137:
	.loc	3 650 12 prologue_end           @ ../../../../Library/StdDriver/inc\usbd.h:650:12
	str	r0, [sp]
	.loc	3 650 10 is_stmt 0              @ ../../../../Library/StdDriver/inc\usbd.h:650:10
	b	.LBB9_1
.LBB9_1:                                @ =>This Inner Loop Header: Depth=1
.Ltmp138:
	.loc	3 650 19                        @ ../../../../Library/StdDriver/inc\usbd.h:650:19
	ldr	r0, [sp]
.Ltmp139:
	.loc	3 650 5                         @ ../../../../Library/StdDriver/inc\usbd.h:650:5
	cmp	r0, #11
	bhi	.LBB9_6
	b	.LBB9_2
.LBB9_2:                                @   in Loop: Header=BB9_1 Depth=1
.Ltmp140:
	.loc	3 652 33 is_stmt 1              @ ../../../../Library/StdDriver/inc\usbd.h:652:33
	ldr	r0, [sp]
	.loc	3 652 35 is_stmt 0              @ ../../../../Library/StdDriver/inc\usbd.h:652:35
	lsls	r0, r0, #4
	ldr	r1, __arm_cp.9_0
	.loc	3 652 43                        @ ../../../../Library/StdDriver/inc\usbd.h:652:43
	adds	r0, r0, r1
	.loc	3 652 20                        @ ../../../../Library/StdDriver/inc\usbd.h:652:20
	str	r0, [sp, #8]
	.loc	3 653 38 is_stmt 1              @ ../../../../Library/StdDriver/inc\usbd.h:653:38
	ldr	r0, [sp, #8]
	.loc	3 653 18 is_stmt 0              @ ../../../../Library/StdDriver/inc\usbd.h:653:18
	ldr	r0, [r0]
	.loc	3 653 16                        @ ../../../../Library/StdDriver/inc\usbd.h:653:16
	str	r0, [sp, #4]
.Ltmp141:
	.loc	3 655 14 is_stmt 1              @ ../../../../Library/StdDriver/inc\usbd.h:655:14
	ldr	r0, [sp, #4]
	movs	r1, #15
	.loc	3 655 21 is_stmt 0              @ ../../../../Library/StdDriver/inc\usbd.h:655:21
	ands	r0, r1
	add	r1, sp, #12
	.loc	3 655 33                        @ ../../../../Library/StdDriver/inc\usbd.h:655:33
	ldrb	r1, [r1]
.Ltmp142:
	.loc	3 655 13                        @ ../../../../Library/StdDriver/inc\usbd.h:655:13
	cmp	r0, r1
	bne	.LBB9_4
	b	.LBB9_3
.LBB9_3:
.Ltmp143:
	.loc	3 657 37 is_stmt 1              @ ../../../../Library/StdDriver/inc\usbd.h:657:37
	ldr	r0, [sp]
	.loc	3 657 39 is_stmt 0              @ ../../../../Library/StdDriver/inc\usbd.h:657:39
	lsls	r0, r0, #4
	ldr	r1, __arm_cp.9_1
	.loc	3 657 47                        @ ../../../../Library/StdDriver/inc\usbd.h:657:47
	adds	r0, r0, r1
	.loc	3 657 24                        @ ../../../../Library/StdDriver/inc\usbd.h:657:24
	str	r0, [sp, #8]
	.loc	3 658 13 is_stmt 1              @ ../../../../Library/StdDriver/inc\usbd.h:658:13
	b	.LBB9_6
.Ltmp144:
.LBB9_4:                                @   in Loop: Header=BB9_1 Depth=1
	.loc	3 660 5                         @ ../../../../Library/StdDriver/inc\usbd.h:660:5
	b	.LBB9_5
.Ltmp145:
.LBB9_5:                                @   in Loop: Header=BB9_1 Depth=1
	.loc	3 650 37                        @ ../../../../Library/StdDriver/inc\usbd.h:650:37
	ldr	r0, [sp]
	adds	r0, r0, #1
	str	r0, [sp]
	.loc	3 650 5 is_stmt 0               @ ../../../../Library/StdDriver/inc\usbd.h:650:5
	b	.LBB9_1
.Ltmp146:
.LBB9_6:
	.loc	3 662 34 is_stmt 1              @ ../../../../Library/StdDriver/inc\usbd.h:662:34
	ldr	r0, [sp, #8]
	.loc	3 662 14 is_stmt 0              @ ../../../../Library/StdDriver/inc\usbd.h:662:14
	ldr	r0, [r0]
	movs	r1, #2
	.loc	3 662 48                        @ ../../../../Library/StdDriver/inc\usbd.h:662:48
	ands	r0, r1
	.loc	3 662 5                         @ ../../../../Library/StdDriver/inc\usbd.h:662:5
	add	sp, #16
	bx	lr
.Ltmp147:
	.p2align	2
@ %bb.7:
	.loc	3 0 5                           @ ../../../../Library/StdDriver/inc\usbd.h:0:5
__arm_cp.9_0:
	.long	1074529544                      @ 0x400c0508
.Lcpi_end53:
	.size	__arm_cp.9_0, .Lcpi_end53-__arm_cp.9_0
__arm_cp.9_1:
	.long	1074529548                      @ 0x400c050c
.Lcpi_end54:
	.size	__arm_cp.9_1, .Lcpi_end54-__arm_cp.9_1
.Lfunc_end9:
	.size	USBD_GetStall, .Lfunc_end9-USBD_GetStall
	.cfi_endproc
	.cantunwind
	.fnend
                                        @ -- End function
	.section	.text.USBD_SetStall,"ax",%progbits
	.p2align	2                               @ -- Begin function USBD_SetStall
	.type	USBD_SetStall,%function
	.code	16                              @ @USBD_SetStall
	.thumb_func
USBD_SetStall:
.Lfunc_begin10:
	.loc	3 581 0 is_stmt 1               @ ../../../../Library/StdDriver/inc\usbd.h:581:0
	.fnstart
	.cfi_startproc
@ %bb.0:
	.pad	#16
	sub	sp, #16
	.cfi_def_cfa_offset 16
                                        @ kill: def $r1 killed $r0
	add	r1, sp, #12
	strb	r0, [r1]
	movs	r0, #0
.Ltmp148:
	.loc	3 584 12 prologue_end           @ ../../../../Library/StdDriver/inc\usbd.h:584:12
	str	r0, [sp, #8]
	.loc	3 584 10 is_stmt 0              @ ../../../../Library/StdDriver/inc\usbd.h:584:10
	b	.LBB10_1
.LBB10_1:                               @ =>This Inner Loop Header: Depth=1
.Ltmp149:
	.loc	3 584 19                        @ ../../../../Library/StdDriver/inc\usbd.h:584:19
	ldr	r0, [sp, #8]
.Ltmp150:
	.loc	3 584 5                         @ ../../../../Library/StdDriver/inc\usbd.h:584:5
	cmp	r0, #11
	bhi	.LBB10_6
	b	.LBB10_2
.LBB10_2:                               @   in Loop: Header=BB10_1 Depth=1
.Ltmp151:
	.loc	3 588 33 is_stmt 1              @ ../../../../Library/StdDriver/inc\usbd.h:588:33
	ldr	r0, [sp, #8]
	.loc	3 588 35 is_stmt 0              @ ../../../../Library/StdDriver/inc\usbd.h:588:35
	lsls	r0, r0, #4
	ldr	r1, __arm_cp.10_0
	.loc	3 588 41                        @ ../../../../Library/StdDriver/inc\usbd.h:588:41
	adds	r0, r0, r1
	.loc	3 588 20                        @ ../../../../Library/StdDriver/inc\usbd.h:588:20
	str	r0, [sp, #4]
	.loc	3 589 38 is_stmt 1              @ ../../../../Library/StdDriver/inc\usbd.h:589:38
	ldr	r0, [sp, #4]
	.loc	3 589 18 is_stmt 0              @ ../../../../Library/StdDriver/inc\usbd.h:589:18
	ldr	r0, [r0]
	.loc	3 589 16                        @ ../../../../Library/StdDriver/inc\usbd.h:589:16
	str	r0, [sp]
.Ltmp152:
	.loc	3 591 14 is_stmt 1              @ ../../../../Library/StdDriver/inc\usbd.h:591:14
	ldr	r0, [sp]
	movs	r1, #15
	.loc	3 591 21 is_stmt 0              @ ../../../../Library/StdDriver/inc\usbd.h:591:21
	ands	r0, r1
	add	r1, sp, #12
	.loc	3 591 33                        @ ../../../../Library/StdDriver/inc\usbd.h:591:33
	ldrb	r1, [r1]
.Ltmp153:
	.loc	3 591 13                        @ ../../../../Library/StdDriver/inc\usbd.h:591:13
	cmp	r0, r1
	bne	.LBB10_4
	b	.LBB10_3
.LBB10_3:
.Ltmp154:
	.loc	3 593 37 is_stmt 1              @ ../../../../Library/StdDriver/inc\usbd.h:593:37
	ldr	r0, [sp, #8]
	.loc	3 593 39 is_stmt 0              @ ../../../../Library/StdDriver/inc\usbd.h:593:39
	lsls	r0, r0, #4
	ldr	r1, __arm_cp.10_1
	.loc	3 593 45                        @ ../../../../Library/StdDriver/inc\usbd.h:593:45
	adds	r0, r0, r1
	.loc	3 593 24                        @ ../../../../Library/StdDriver/inc\usbd.h:593:24
	str	r0, [sp, #4]
	.loc	3 594 42 is_stmt 1              @ ../../../../Library/StdDriver/inc\usbd.h:594:42
	ldr	r0, [sp, #4]
	.loc	3 594 22 is_stmt 0              @ ../../../../Library/StdDriver/inc\usbd.h:594:22
	ldr	r0, [r0]
	.loc	3 594 20                        @ ../../../../Library/StdDriver/inc\usbd.h:594:20
	str	r0, [sp]
	.loc	3 596 49 is_stmt 1              @ ../../../../Library/StdDriver/inc\usbd.h:596:49
	ldr	r0, [sp]
	movs	r1, #2
	.loc	3 596 56 is_stmt 0              @ ../../../../Library/StdDriver/inc\usbd.h:596:56
	orrs	r0, r1
	.loc	3 596 33                        @ ../../../../Library/StdDriver/inc\usbd.h:596:33
	ldr	r1, [sp, #4]
	.loc	3 596 46                        @ ../../../../Library/StdDriver/inc\usbd.h:596:46
	str	r0, [r1]
	.loc	3 597 13 is_stmt 1              @ ../../../../Library/StdDriver/inc\usbd.h:597:13
	b	.LBB10_6
.Ltmp155:
.LBB10_4:                               @   in Loop: Header=BB10_1 Depth=1
	.loc	3 599 5                         @ ../../../../Library/StdDriver/inc\usbd.h:599:5
	b	.LBB10_5
.Ltmp156:
.LBB10_5:                               @   in Loop: Header=BB10_1 Depth=1
	.loc	3 584 37                        @ ../../../../Library/StdDriver/inc\usbd.h:584:37
	ldr	r0, [sp, #8]
	adds	r0, r0, #1
	str	r0, [sp, #8]
	.loc	3 584 5 is_stmt 0               @ ../../../../Library/StdDriver/inc\usbd.h:584:5
	b	.LBB10_1
.Ltmp157:
.LBB10_6:
	.loc	3 600 1 is_stmt 1               @ ../../../../Library/StdDriver/inc\usbd.h:600:1
	add	sp, #16
	bx	lr
.Ltmp158:
	.p2align	2
@ %bb.7:
	.loc	3 0 1 is_stmt 0                 @ ../../../../Library/StdDriver/inc\usbd.h:0:1
__arm_cp.10_0:
	.long	1074529544                      @ 0x400c0508
.Lcpi_end55:
	.size	__arm_cp.10_0, .Lcpi_end55-__arm_cp.10_0
__arm_cp.10_1:
	.long	1074529548                      @ 0x400c050c
.Lcpi_end56:
	.size	__arm_cp.10_1, .Lcpi_end56-__arm_cp.10_1
.Lfunc_end10:
	.size	USBD_SetStall, .Lfunc_end10-USBD_SetStall
	.cfi_endproc
	.cantunwind
	.fnend
                                        @ -- End function
	.section	.text.USBD_CtrlIn,"ax",%progbits
	.hidden	USBD_CtrlIn                     @ -- Begin function USBD_CtrlIn
	.globl	USBD_CtrlIn
	.p2align	2
	.type	USBD_CtrlIn,%function
	.code	16                              @ @USBD_CtrlIn
	.thumb_func
USBD_CtrlIn:
.Lfunc_begin11:
	.loc	2 624 0 is_stmt 1               @ ../../../../Library/StdDriver/src/usbd.c:624:0
	.fnstart
	.cfi_startproc
@ %bb.0:
	.save	{r7, lr}
	push	{r7, lr}
	.cfi_def_cfa_offset 8
	.cfi_offset lr, -4
	.cfi_offset r7, -8
	.pad	#16
	sub	sp, #16
	.cfi_def_cfa_offset 24
.Ltmp159:
	.loc	2 628 9 prologue_end            @ ../../../../Library/StdDriver/src/usbd.c:628:9
	ldr	r0, __arm_cp.11_0
	ldr	r0, [r0]
.Ltmp160:
	.loc	2 628 9 is_stmt 0               @ ../../../../Library/StdDriver/src/usbd.c:628:9
	cbz	r0, .LBB11_5
	b	.LBB11_1
.LBB11_1:
.Ltmp161:
	.loc	2 631 13 is_stmt 1              @ ../../../../Library/StdDriver/src/usbd.c:631:13
	ldr	r0, __arm_cp.11_0
	ldr	r0, [r0]
	.loc	2 631 36 is_stmt 0              @ ../../../../Library/StdDriver/src/usbd.c:631:36
	ldr	r1, __arm_cp.11_6
	ldr	r1, [r1]
.Ltmp162:
	.loc	2 631 13                        @ ../../../../Library/StdDriver/src/usbd.c:631:13
	cmp	r0, r1
	bls	.LBB11_3
	b	.LBB11_2
.LBB11_2:
	.loc	2 0 13                          @ ../../../../Library/StdDriver/src/usbd.c:0:13
	ldr	r0, __arm_cp.11_7
.Ltmp163:
	.loc	2 634 53 is_stmt 1              @ ../../../../Library/StdDriver/src/usbd.c:634:53
	ldr	r0, [r0]
	ldr	r1, __arm_cp.11_8
	.loc	2 634 51 is_stmt 0              @ ../../../../Library/StdDriver/src/usbd.c:634:51
	adds	r0, r0, r1
	.loc	2 634 91                        @ ../../../../Library/StdDriver/src/usbd.c:634:91
	ldr	r1, __arm_cp.11_9
	str	r1, [sp, #8]                    @ 4-byte Spill
	ldr	r1, [r1]
	.loc	2 634 116                       @ ../../../../Library/StdDriver/src/usbd.c:634:116
	ldr	r2, __arm_cp.11_6
	str	r2, [sp, #12]                   @ 4-byte Spill
	ldr	r2, [r2]
	.loc	2 634 13                        @ ../../../../Library/StdDriver/src/usbd.c:634:13
	bl	USBD_MemCopy
	ldr	r2, [sp, #8]                    @ 4-byte Reload
	ldr	r0, [sp, #12]                   @ 4-byte Reload
	.loc	2 635 13 is_stmt 1              @ ../../../../Library/StdDriver/src/usbd.c:635:13
	ldr	r1, [r0]
	ldr	r3, __arm_cp.11_5
	str	r1, [r3]
	.loc	2 636 40                        @ ../../../../Library/StdDriver/src/usbd.c:636:40
	ldr	r3, [r0]
	.loc	2 636 37 is_stmt 0              @ ../../../../Library/StdDriver/src/usbd.c:636:37
	ldr	r1, [r2]
	adds	r1, r1, r3
	str	r1, [r2]
	.loc	2 637 37 is_stmt 1              @ ../../../../Library/StdDriver/src/usbd.c:637:37
	ldr	r2, [r0]
	.loc	2 637 34 is_stmt 0              @ ../../../../Library/StdDriver/src/usbd.c:637:34
	ldr	r1, __arm_cp.11_0
	ldr	r0, [r1]
	subs	r0, r0, r2
	str	r0, [r1]
	.loc	2 638 9 is_stmt 1               @ ../../../../Library/StdDriver/src/usbd.c:638:9
	b	.LBB11_4
.Ltmp164:
.LBB11_3:
	.loc	2 0 9 is_stmt 0                 @ ../../../../Library/StdDriver/src/usbd.c:0:9
	ldr	r0, __arm_cp.11_7
.Ltmp165:
	.loc	2 642 53 is_stmt 1              @ ../../../../Library/StdDriver/src/usbd.c:642:53
	ldr	r0, [r0]
	ldr	r1, __arm_cp.11_8
	.loc	2 642 51 is_stmt 0              @ ../../../../Library/StdDriver/src/usbd.c:642:51
	adds	r0, r0, r1
	.loc	2 642 91                        @ ../../../../Library/StdDriver/src/usbd.c:642:91
	ldr	r1, __arm_cp.11_9
	str	r1, [sp]                        @ 4-byte Spill
	ldr	r1, [r1]
	.loc	2 642 116                       @ ../../../../Library/StdDriver/src/usbd.c:642:116
	ldr	r2, __arm_cp.11_0
	str	r2, [sp, #4]                    @ 4-byte Spill
	ldr	r2, [r2]
	.loc	2 642 13                        @ ../../../../Library/StdDriver/src/usbd.c:642:13
	bl	USBD_MemCopy
	ldr	r2, [sp]                        @ 4-byte Reload
	ldr	r1, [sp, #4]                    @ 4-byte Reload
	.loc	2 643 13 is_stmt 1              @ ../../../../Library/StdDriver/src/usbd.c:643:13
	ldr	r0, [r1]
	ldr	r3, __arm_cp.11_5
	str	r0, [r3]
	movs	r0, #0
	.loc	2 645 37                        @ ../../../../Library/StdDriver/src/usbd.c:645:37
	str	r0, [r2]
	.loc	2 646 37                        @ ../../../../Library/StdDriver/src/usbd.c:646:37
	str	r0, [r1]
	b	.LBB11_4
.Ltmp166:
.LBB11_4:
	.loc	2 648 5                         @ ../../../../Library/StdDriver/src/usbd.c:648:5
	b	.LBB11_14
.Ltmp167:
.LBB11_5:
	.loc	2 652 14                        @ ../../../../Library/StdDriver/src/usbd.c:652:14
	ldr	r0, __arm_cp.11_1
	ldrb	r0, [r0]
	.loc	2 652 56 is_stmt 0              @ ../../../../Library/StdDriver/src/usbd.c:652:56
	cbnz	r0, .LBB11_11
	b	.LBB11_6
.LBB11_6:
	.loc	2 652 60                        @ ../../../../Library/StdDriver/src/usbd.c:652:60
	ldr	r0, __arm_cp.11_1
	ldrb	r0, [r0, #1]
.Ltmp168:
	.loc	2 652 13                        @ ../../../../Library/StdDriver/src/usbd.c:652:13
	cmp	r0, #5
	bne	.LBB11_11
	b	.LBB11_7
.LBB11_7:
	.loc	2 0 13                          @ ../../../../Library/StdDriver/src/usbd.c:0:13
	ldr	r0, __arm_cp.11_2
.Ltmp169:
	.loc	2 654 18 is_stmt 1              @ ../../../../Library/StdDriver/src/usbd.c:654:18
	ldr	r0, [r0]
	.loc	2 654 37 is_stmt 0              @ ../../../../Library/StdDriver/src/usbd.c:654:37
	ldr	r1, __arm_cp.11_3
	ldr	r1, [r1]
	.loc	2 654 56                        @ ../../../../Library/StdDriver/src/usbd.c:654:56
	cmp	r0, r1
	beq	.LBB11_10
	b	.LBB11_8
.LBB11_8:
	.loc	2 0 56                          @ ../../../../Library/StdDriver/src/usbd.c:0:56
	ldr	r0, __arm_cp.11_2
	.loc	2 654 60                        @ ../../../../Library/StdDriver/src/usbd.c:654:60
	ldr	r0, [r0]
.Ltmp170:
	.loc	2 654 17                        @ ../../../../Library/StdDriver/src/usbd.c:654:17
	cbnz	r0, .LBB11_10
	b	.LBB11_9
.LBB11_9:
.Ltmp171:
	.loc	2 656 17 is_stmt 1              @ ../../../../Library/StdDriver/src/usbd.c:656:17
	ldr	r0, __arm_cp.11_3
	ldr	r0, [r0]
	ldr	r1, __arm_cp.11_2
	str	r0, [r1]
	.loc	2 657 13                        @ ../../../../Library/StdDriver/src/usbd.c:657:13
	b	.LBB11_10
.Ltmp172:
.LBB11_10:
	.loc	2 658 9                         @ ../../../../Library/StdDriver/src/usbd.c:658:9
	b	.LBB11_11
.Ltmp173:
.LBB11_11:
	.loc	2 661 13                        @ ../../../../Library/StdDriver/src/usbd.c:661:13
	ldr	r0, __arm_cp.11_4
	ldrb	r0, [r0]
.Ltmp174:
	.loc	2 661 13 is_stmt 0              @ ../../../../Library/StdDriver/src/usbd.c:661:13
	cbz	r0, .LBB11_13
	b	.LBB11_12
.LBB11_12:
	.loc	2 0 13                          @ ../../../../Library/StdDriver/src/usbd.c:0:13
	ldr	r1, __arm_cp.11_5
	movs	r0, #0
.Ltmp175:
	.loc	2 663 13 is_stmt 1              @ ../../../../Library/StdDriver/src/usbd.c:663:13
	str	r0, [r1]
	.loc	2 664 38                        @ ../../../../Library/StdDriver/src/usbd.c:664:38
	ldr	r1, __arm_cp.11_4
	strb	r0, [r1]
	.loc	2 665 9                         @ ../../../../Library/StdDriver/src/usbd.c:665:9
	b	.LBB11_13
.Ltmp176:
.LBB11_13:
	.loc	2 0 9 is_stmt 0                 @ ../../../../Library/StdDriver/src/usbd.c:0:9
	b	.LBB11_14
.LBB11_14:
	.loc	2 670 1 is_stmt 1               @ ../../../../Library/StdDriver/src/usbd.c:670:1
	add	sp, #16
	pop	{r7, pc}
.Ltmp177:
	.p2align	2
@ %bb.15:
	.loc	2 0 1 is_stmt 0                 @ ../../../../Library/StdDriver/src/usbd.c:0:1
__arm_cp.11_0:
	.long	s_USBD_u32CtrlInSize
.Lcpi_end57:
	.size	__arm_cp.11_0, .Lcpi_end57-__arm_cp.11_0
__arm_cp.11_1:
	.long	g_USBD_au8SetupPacket
.Lcpi_end58:
	.size	__arm_cp.11_1, .Lcpi_end58-__arm_cp.11_1
__arm_cp.11_2:
	.long	1074528264                      @ 0x400c0008
.Lcpi_end59:
	.size	__arm_cp.11_2, .Lcpi_end59-__arm_cp.11_2
__arm_cp.11_3:
	.long	s_USBD_u32UsbAddr
.Lcpi_end60:
	.size	__arm_cp.11_3, .Lcpi_end60-__arm_cp.11_3
__arm_cp.11_4:
	.long	s_USBD_u8CtrlInZeroFlag
.Lcpi_end61:
	.size	__arm_cp.11_4, .Lcpi_end61-__arm_cp.11_4
__arm_cp.11_5:
	.long	1074529540                      @ 0x400c0504
.Lcpi_end62:
	.size	__arm_cp.11_5, .Lcpi_end62-__arm_cp.11_5
__arm_cp.11_6:
	.long	s_USBD_u32CtrlMaxPktSize
.Lcpi_end63:
	.size	__arm_cp.11_6, .Lcpi_end63-__arm_cp.11_6
__arm_cp.11_7:
	.long	1074529536                      @ 0x400c0500
.Lcpi_end64:
	.size	__arm_cp.11_7, .Lcpi_end64-__arm_cp.11_7
__arm_cp.11_8:
	.long	1074528512                      @ 0x400c0100
.Lcpi_end65:
	.size	__arm_cp.11_8, .Lcpi_end65-__arm_cp.11_8
__arm_cp.11_9:
	.long	s_USBD_pu8CtrlInPointer
.Lcpi_end66:
	.size	__arm_cp.11_9, .Lcpi_end66-__arm_cp.11_9
.Lfunc_end11:
	.size	USBD_CtrlIn, .Lfunc_end11-USBD_CtrlIn
	.cfi_endproc
	.cantunwind
	.fnend
                                        @ -- End function
	.section	.text.USBD_CtrlOut,"ax",%progbits
	.hidden	USBD_CtrlOut                    @ -- Begin function USBD_CtrlOut
	.globl	USBD_CtrlOut
	.p2align	2
	.type	USBD_CtrlOut,%function
	.code	16                              @ @USBD_CtrlOut
	.thumb_func
USBD_CtrlOut:
.Lfunc_begin12:
	.loc	2 702 0 is_stmt 1               @ ../../../../Library/StdDriver/src/usbd.c:702:0
	.fnstart
	.cfi_startproc
@ %bb.0:
	.save	{r7, lr}
	push	{r7, lr}
	.cfi_def_cfa_offset 8
	.cfi_offset lr, -4
	.cfi_offset r7, -8
	.pad	#16
	sub	sp, #16
	.cfi_def_cfa_offset 24
.Ltmp178:
	.loc	2 703 9 prologue_end            @ ../../../../Library/StdDriver/src/usbd.c:703:9
	ldr	r0, __arm_cp.12_0
	ldr	r0, [r0]
	ldr	r1, __arm_cp.12_1
	.loc	2 703 43 is_stmt 0              @ ../../../../Library/StdDriver/src/usbd.c:703:43
	ldr	r1, [r1]
	movs	r2, #240
	.loc	2 703 50                        @ ../../../../Library/StdDriver/src/usbd.c:703:50
	ands	r1, r2
.Ltmp179:
	.loc	2 703 9                         @ ../../../../Library/StdDriver/src/usbd.c:703:9
	cmp	r0, r1
	beq	.LBB12_6
	b	.LBB12_1
.LBB12_1:
	.loc	2 0 9                           @ ../../../../Library/StdDriver/src/usbd.c:0:9
	ldr	r0, __arm_cp.12_1
.Ltmp180:
	.loc	2 705 41 is_stmt 1              @ ../../../../Library/StdDriver/src/usbd.c:705:41
	ldr	r0, [r0]
	movs	r1, #240
	.loc	2 705 48 is_stmt 0              @ ../../../../Library/StdDriver/src/usbd.c:705:48
	ands	r0, r1
	.loc	2 705 33                        @ ../../../../Library/StdDriver/src/usbd.c:705:33
	ldr	r1, __arm_cp.12_0
	str	r0, [r1]
.Ltmp181:
	.loc	2 707 13 is_stmt 1              @ ../../../../Library/StdDriver/src/usbd.c:707:13
	ldr	r0, __arm_cp.12_4
	ldr	r0, [r0]
	.loc	2 707 37 is_stmt 0              @ ../../../../Library/StdDriver/src/usbd.c:707:37
	ldr	r1, __arm_cp.12_5
	ldr	r1, [r1]
.Ltmp182:
	.loc	2 707 13                        @ ../../../../Library/StdDriver/src/usbd.c:707:13
	cmp	r0, r1
	bhs	.LBB12_5
	b	.LBB12_2
.LBB12_2:
	.loc	2 0 13                          @ ../../../../Library/StdDriver/src/usbd.c:0:13
	ldr	r0, __arm_cp.12_3
.Ltmp183:
	.loc	2 712 23 is_stmt 1              @ ../../../../Library/StdDriver/src/usbd.c:712:23
	ldr	r0, [r0]
	.loc	2 712 21 is_stmt 0              @ ../../../../Library/StdDriver/src/usbd.c:712:21
	str	r0, [sp, #12]
	ldr	r0, __arm_cp.12_6
	.loc	2 713 36 is_stmt 1              @ ../../../../Library/StdDriver/src/usbd.c:713:36
	ldr	r0, [r0]
	ldr	r1, __arm_cp.12_7
	.loc	2 713 34 is_stmt 0              @ ../../../../Library/StdDriver/src/usbd.c:713:34
	adds	r0, r0, r1
	.loc	2 713 18                        @ ../../../../Library/StdDriver/src/usbd.c:713:18
	str	r0, [sp, #8]
	.loc	2 714 37 is_stmt 1              @ ../../../../Library/StdDriver/src/usbd.c:714:37
	ldr	r0, __arm_cp.12_8
	str	r0, [sp, #4]                    @ 4-byte Spill
	ldr	r0, [r0]
	.loc	2 714 74 is_stmt 0              @ ../../../../Library/StdDriver/src/usbd.c:714:74
	ldr	r1, [sp, #8]
	.loc	2 714 80                        @ ../../../../Library/StdDriver/src/usbd.c:714:80
	ldr	r2, [sp, #12]
	.loc	2 714 13                        @ ../../../../Library/StdDriver/src/usbd.c:714:13
	bl	USBD_MemCopy
	ldr	r1, [sp, #4]                    @ 4-byte Reload
	.loc	2 715 41 is_stmt 1              @ ../../../../Library/StdDriver/src/usbd.c:715:41
	ldr	r2, [sp, #12]
	.loc	2 715 38 is_stmt 0              @ ../../../../Library/StdDriver/src/usbd.c:715:38
	ldr	r0, [r1]
	adds	r0, r0, r2
	str	r0, [r1]
	.loc	2 716 38 is_stmt 1              @ ../../../../Library/StdDriver/src/usbd.c:716:38
	ldr	r2, [sp, #12]
	.loc	2 716 35 is_stmt 0              @ ../../../../Library/StdDriver/src/usbd.c:716:35
	ldr	r0, __arm_cp.12_4
	ldr	r1, [r0]
	adds	r1, r1, r2
	str	r1, [r0]
.Ltmp184:
	.loc	2 718 17 is_stmt 1              @ ../../../../Library/StdDriver/src/usbd.c:718:17
	ldr	r0, [r0]
	.loc	2 718 41 is_stmt 0              @ ../../../../Library/StdDriver/src/usbd.c:718:41
	ldr	r1, __arm_cp.12_5
	ldr	r1, [r1]
.Ltmp185:
	.loc	2 718 17                        @ ../../../../Library/StdDriver/src/usbd.c:718:17
	cmp	r0, r1
	bhs	.LBB12_4
	b	.LBB12_3
.LBB12_3:
.Ltmp186:
	.loc	2 720 17 is_stmt 1              @ ../../../../Library/StdDriver/src/usbd.c:720:17
	ldr	r0, __arm_cp.12_2
	ldr	r0, [r0]
	ldr	r1, __arm_cp.12_3
	str	r0, [r1]
	.loc	2 721 13                        @ ../../../../Library/StdDriver/src/usbd.c:721:13
	b	.LBB12_4
.Ltmp187:
.LBB12_4:
	.loc	2 722 9                         @ ../../../../Library/StdDriver/src/usbd.c:722:9
	b	.LBB12_5
.Ltmp188:
.LBB12_5:
	.loc	2 723 5                         @ ../../../../Library/StdDriver/src/usbd.c:723:5
	b	.LBB12_7
.Ltmp189:
.LBB12_6:
	.loc	2 726 9                         @ ../../../../Library/StdDriver/src/usbd.c:726:9
	ldr	r0, __arm_cp.12_2
	ldr	r0, [r0]
	ldr	r1, __arm_cp.12_3
	str	r0, [r1]
	b	.LBB12_7
.Ltmp190:
.LBB12_7:
	.loc	2 728 1                         @ ../../../../Library/StdDriver/src/usbd.c:728:1
	add	sp, #16
	pop	{r7, pc}
.Ltmp191:
	.p2align	2
@ %bb.8:
	.loc	2 0 1 is_stmt 0                 @ ../../../../Library/StdDriver/src/usbd.c:0:1
__arm_cp.12_0:
	.long	s_USBD_u32CtrlOutToggle
.Lcpi_end67:
	.size	__arm_cp.12_0, .Lcpi_end67-__arm_cp.12_0
__arm_cp.12_1:
	.long	1074528288                      @ 0x400c0020
.Lcpi_end68:
	.size	__arm_cp.12_1, .Lcpi_end68-__arm_cp.12_1
__arm_cp.12_2:
	.long	s_USBD_u32CtrlMaxPktSize
.Lcpi_end69:
	.size	__arm_cp.12_2, .Lcpi_end69-__arm_cp.12_2
__arm_cp.12_3:
	.long	1074529556                      @ 0x400c0514
.Lcpi_end70:
	.size	__arm_cp.12_3, .Lcpi_end70-__arm_cp.12_3
__arm_cp.12_4:
	.long	s_USBD_u32CtrlOutSize
.Lcpi_end71:
	.size	__arm_cp.12_4, .Lcpi_end71-__arm_cp.12_4
__arm_cp.12_5:
	.long	s_USBD_u32CtrlOutSizeLimit
.Lcpi_end72:
	.size	__arm_cp.12_5, .Lcpi_end72-__arm_cp.12_5
__arm_cp.12_6:
	.long	1074529552                      @ 0x400c0510
.Lcpi_end73:
	.size	__arm_cp.12_6, .Lcpi_end73-__arm_cp.12_6
__arm_cp.12_7:
	.long	1074528512                      @ 0x400c0100
.Lcpi_end74:
	.size	__arm_cp.12_7, .Lcpi_end74-__arm_cp.12_7
__arm_cp.12_8:
	.long	s_USBD_pu8CtrlOutPointer
.Lcpi_end75:
	.size	__arm_cp.12_8, .Lcpi_end75-__arm_cp.12_8
.Lfunc_end12:
	.size	USBD_CtrlOut, .Lfunc_end12-USBD_CtrlOut
	.cfi_endproc
	.cantunwind
	.fnend
                                        @ -- End function
	.section	.text.USBD_SwReset,"ax",%progbits
	.hidden	USBD_SwReset                    @ -- Begin function USBD_SwReset
	.globl	USBD_SwReset
	.p2align	2
	.type	USBD_SwReset,%function
	.code	16                              @ @USBD_SwReset
	.thumb_func
USBD_SwReset:
.Lfunc_begin13:
	.loc	2 741 0 is_stmt 1               @ ../../../../Library/StdDriver/src/usbd.c:741:0
	.fnstart
	.cfi_startproc
@ %bb.0:
	.pad	#12
	sub	sp, #12
	.cfi_def_cfa_offset 12
.Ltmp192:
	.loc	2 745 32 prologue_end           @ ../../../../Library/StdDriver/src/usbd.c:745:32
	ldr	r1, __arm_cp.13_0
	movs	r0, #0
	str	r0, [sp]                        @ 4-byte Spill
	str	r0, [r1]
	.loc	2 746 32                        @ ../../../../Library/StdDriver/src/usbd.c:746:32
	ldr	r1, __arm_cp.13_1
	str	r0, [r1]
	.loc	2 747 32                        @ ../../../../Library/StdDriver/src/usbd.c:747:32
	ldr	r1, __arm_cp.13_2
	str	r0, [r1]
	.loc	2 748 32                        @ ../../../../Library/StdDriver/src/usbd.c:748:32
	ldr	r1, __arm_cp.13_3
	str	r0, [r1]
	.loc	2 749 32                        @ ../../../../Library/StdDriver/src/usbd.c:749:32
	ldr	r1, __arm_cp.13_4
	str	r0, [r1]
	.loc	2 750 32                        @ ../../../../Library/StdDriver/src/usbd.c:750:32
	ldr	r1, __arm_cp.13_5
	str	r0, [r1]
	.loc	2 751 5                         @ ../../../../Library/StdDriver/src/usbd.c:751:5
	ldr	r1, __arm_cp.13_6
	str	r1, [sp, #4]                    @ 4-byte Spill
	strb	r0, [r1, #7]
	strb	r0, [r1, #6]
	strb	r0, [r1, #5]
	strb	r0, [r1, #4]
	strb	r0, [r1, #3]
	strb	r0, [r1, #2]
	strb	r0, [r1, #1]
	strb	r0, [r1]
.Ltmp193:
	.loc	2 754 12                        @ ../../../../Library/StdDriver/src/usbd.c:754:12
	str	r0, [sp, #8]
	.loc	2 754 10 is_stmt 0              @ ../../../../Library/StdDriver/src/usbd.c:754:10
	b	.LBB13_1
.LBB13_1:                               @ =>This Inner Loop Header: Depth=1
.Ltmp194:
	.loc	2 754 19                        @ ../../../../Library/StdDriver/src/usbd.c:754:19
	ldr	r0, [sp, #8]
.Ltmp195:
	.loc	2 754 5                         @ ../../../../Library/StdDriver/src/usbd.c:754:5
	cmp	r0, #11
	bhi	.LBB13_4
	b	.LBB13_2
.LBB13_2:                               @   in Loop: Header=BB13_1 Depth=1
.Ltmp196:
	.loc	2 755 18 is_stmt 1              @ ../../../../Library/StdDriver/src/usbd.c:755:18
	ldr	r0, [sp, #8]
	.loc	2 755 9 is_stmt 0               @ ../../../../Library/StdDriver/src/usbd.c:755:9
	lsls	r1, r0, #4
	ldr	r2, __arm_cp.13_8
	.loc	2 755 25                        @ ../../../../Library/StdDriver/src/usbd.c:755:25
	ldr	r0, [r1, r2]
	movs	r3, #128
	bics	r0, r3
	str	r0, [r1, r2]
	.loc	2 755 9                         @ ../../../../Library/StdDriver/src/usbd.c:755:9
	b	.LBB13_3
.LBB13_3:                               @   in Loop: Header=BB13_1 Depth=1
	.loc	2 754 37 is_stmt 1              @ ../../../../Library/StdDriver/src/usbd.c:754:37
	ldr	r0, [sp, #8]
	adds	r0, r0, #1
	str	r0, [sp, #8]
	.loc	2 754 5 is_stmt 0               @ ../../../../Library/StdDriver/src/usbd.c:754:5
	b	.LBB13_1
.Ltmp197:
.LBB13_4:
	.loc	2 0 5                           @ ../../../../Library/StdDriver/src/usbd.c:0:5
	ldr	r1, __arm_cp.13_7
	movs	r0, #0
	.loc	2 758 5 is_stmt 1               @ ../../../../Library/StdDriver/src/usbd.c:758:5
	str	r0, [r1]
	.loc	2 759 1                         @ ../../../../Library/StdDriver/src/usbd.c:759:1
	add	sp, #12
	bx	lr
.Ltmp198:
	.p2align	2
@ %bb.5:
	.loc	2 0 1 is_stmt 0                 @ ../../../../Library/StdDriver/src/usbd.c:0:1
__arm_cp.13_0:
	.long	s_USBD_pu8CtrlInPointer
.Lcpi_end76:
	.size	__arm_cp.13_0, .Lcpi_end76-__arm_cp.13_0
__arm_cp.13_1:
	.long	s_USBD_u32CtrlInSize
.Lcpi_end77:
	.size	__arm_cp.13_1, .Lcpi_end77-__arm_cp.13_1
__arm_cp.13_2:
	.long	s_USBD_pu8CtrlOutPointer
.Lcpi_end78:
	.size	__arm_cp.13_2, .Lcpi_end78-__arm_cp.13_2
__arm_cp.13_3:
	.long	s_USBD_u32CtrlOutSize
.Lcpi_end79:
	.size	__arm_cp.13_3, .Lcpi_end79-__arm_cp.13_3
__arm_cp.13_4:
	.long	s_USBD_u32CtrlOutSizeLimit
.Lcpi_end80:
	.size	__arm_cp.13_4, .Lcpi_end80-__arm_cp.13_4
__arm_cp.13_5:
	.long	g_USBD_u32EpStallLock
.Lcpi_end81:
	.size	__arm_cp.13_5, .Lcpi_end81-__arm_cp.13_5
__arm_cp.13_6:
	.long	g_USBD_au8SetupPacket
.Lcpi_end82:
	.size	__arm_cp.13_6, .Lcpi_end82-__arm_cp.13_6
__arm_cp.13_7:
	.long	1074528264                      @ 0x400c0008
.Lcpi_end83:
	.size	__arm_cp.13_7, .Lcpi_end83-__arm_cp.13_7
__arm_cp.13_8:
	.long	1074529544                      @ 0x400c0508
.Lcpi_end84:
	.size	__arm_cp.13_8, .Lcpi_end84-__arm_cp.13_8
.Lfunc_end13:
	.size	USBD_SwReset, .Lfunc_end13-USBD_SwReset
	.cfi_endproc
	.cantunwind
	.fnend
                                        @ -- End function
	.section	.text.USBD_SetVendorRequest,"ax",%progbits
	.hidden	USBD_SetVendorRequest           @ -- Begin function USBD_SetVendorRequest
	.globl	USBD_SetVendorRequest
	.p2align	2
	.type	USBD_SetVendorRequest,%function
	.code	16                              @ @USBD_SetVendorRequest
	.thumb_func
USBD_SetVendorRequest:
.Lfunc_begin14:
	.loc	2 771 0 is_stmt 1               @ ../../../../Library/StdDriver/src/usbd.c:771:0
	.fnstart
	.cfi_startproc
@ %bb.0:
	.pad	#4
	sub	sp, #4
	.cfi_def_cfa_offset 4
	str	r0, [sp]
.Ltmp199:
	.loc	2 772 31 prologue_end           @ ../../../../Library/StdDriver/src/usbd.c:772:31
	ldr	r0, [sp]
	.loc	2 772 29 is_stmt 0              @ ../../../../Library/StdDriver/src/usbd.c:772:29
	ldr	r1, __arm_cp.14_0
	str	r0, [r1]
	.loc	2 773 1 is_stmt 1               @ ../../../../Library/StdDriver/src/usbd.c:773:1
	add	sp, #4
	bx	lr
.Ltmp200:
	.p2align	2
@ %bb.1:
	.loc	2 0 1 is_stmt 0                 @ ../../../../Library/StdDriver/src/usbd.c:0:1
__arm_cp.14_0:
	.long	g_USBD_pfnVendorRequest
.Lcpi_end85:
	.size	__arm_cp.14_0, .Lcpi_end85-__arm_cp.14_0
.Lfunc_end14:
	.size	USBD_SetVendorRequest, .Lfunc_end14-USBD_SetVendorRequest
	.cfi_endproc
	.cantunwind
	.fnend
                                        @ -- End function
	.section	.text.USBD_SetConfigCallback,"ax",%progbits
	.hidden	USBD_SetConfigCallback          @ -- Begin function USBD_SetConfigCallback
	.globl	USBD_SetConfigCallback
	.p2align	2
	.type	USBD_SetConfigCallback,%function
	.code	16                              @ @USBD_SetConfigCallback
	.thumb_func
USBD_SetConfigCallback:
.Lfunc_begin15:
	.loc	2 785 0 is_stmt 1               @ ../../../../Library/StdDriver/src/usbd.c:785:0
	.fnstart
	.cfi_startproc
@ %bb.0:
	.pad	#4
	sub	sp, #4
	.cfi_def_cfa_offset 4
	str	r0, [sp]
.Ltmp201:
	.loc	2 786 35 prologue_end           @ ../../../../Library/StdDriver/src/usbd.c:786:35
	ldr	r0, [sp]
	.loc	2 786 33 is_stmt 0              @ ../../../../Library/StdDriver/src/usbd.c:786:33
	ldr	r1, __arm_cp.15_0
	str	r0, [r1]
	.loc	2 787 1 is_stmt 1               @ ../../../../Library/StdDriver/src/usbd.c:787:1
	add	sp, #4
	bx	lr
.Ltmp202:
	.p2align	2
@ %bb.1:
	.loc	2 0 1 is_stmt 0                 @ ../../../../Library/StdDriver/src/usbd.c:0:1
__arm_cp.15_0:
	.long	g_USBD_pfnSetConfigCallback
.Lcpi_end86:
	.size	__arm_cp.15_0, .Lcpi_end86-__arm_cp.15_0
.Lfunc_end15:
	.size	USBD_SetConfigCallback, .Lfunc_end15-USBD_SetConfigCallback
	.cfi_endproc
	.cantunwind
	.fnend
                                        @ -- End function
	.section	.text.USBD_LockEpStall,"ax",%progbits
	.hidden	USBD_LockEpStall                @ -- Begin function USBD_LockEpStall
	.globl	USBD_LockEpStall
	.p2align	2
	.type	USBD_LockEpStall,%function
	.code	16                              @ @USBD_LockEpStall
	.thumb_func
USBD_LockEpStall:
.Lfunc_begin16:
	.loc	2 801 0 is_stmt 1               @ ../../../../Library/StdDriver/src/usbd.c:801:0
	.fnstart
	.cfi_startproc
@ %bb.0:
	.pad	#4
	sub	sp, #4
	.cfi_def_cfa_offset 4
	str	r0, [sp]
.Ltmp203:
	.loc	2 802 29 prologue_end           @ ../../../../Library/StdDriver/src/usbd.c:802:29
	ldr	r0, [sp]
	.loc	2 802 27 is_stmt 0              @ ../../../../Library/StdDriver/src/usbd.c:802:27
	ldr	r1, __arm_cp.16_0
	str	r0, [r1]
	.loc	2 803 1 is_stmt 1               @ ../../../../Library/StdDriver/src/usbd.c:803:1
	add	sp, #4
	bx	lr
.Ltmp204:
	.p2align	2
@ %bb.1:
	.loc	2 0 1 is_stmt 0                 @ ../../../../Library/StdDriver/src/usbd.c:0:1
__arm_cp.16_0:
	.long	g_USBD_u32EpStallLock
.Lcpi_end87:
	.size	__arm_cp.16_0, .Lcpi_end87-__arm_cp.16_0
.Lfunc_end16:
	.size	USBD_LockEpStall, .Lfunc_end16-USBD_LockEpStall
	.cfi_endproc
	.cantunwind
	.fnend
                                        @ -- End function
	.hidden	g_USBD_au8SetupPacket           @ @g_USBD_au8SetupPacket
	.type	g_USBD_au8SetupPacket,%object
	.section	.bss.g_USBD_au8SetupPacket,"aw",%nobits
	.globl	g_USBD_au8SetupPacket
g_USBD_au8SetupPacket:
	.zero	8
	.size	g_USBD_au8SetupPacket, 8

	.hidden	g_USBD_u8RemoteWakeupEn         @ @g_USBD_u8RemoteWakeupEn
	.type	g_USBD_u8RemoteWakeupEn,%object
	.section	.bss.g_USBD_u8RemoteWakeupEn,"aw",%nobits
	.globl	g_USBD_u8RemoteWakeupEn
g_USBD_u8RemoteWakeupEn:
	.byte	0                               @ 0x0
	.size	g_USBD_u8RemoteWakeupEn, 1

	.hidden	g_USBD_pfnVendorRequest         @ @g_USBD_pfnVendorRequest
	.type	g_USBD_pfnVendorRequest,%object
	.section	.bss.g_USBD_pfnVendorRequest,"aw",%nobits
	.globl	g_USBD_pfnVendorRequest
	.p2align	2
g_USBD_pfnVendorRequest:
	.long	0
	.size	g_USBD_pfnVendorRequest, 4

	.hidden	g_USBD_pfnClassRequest          @ @g_USBD_pfnClassRequest
	.type	g_USBD_pfnClassRequest,%object
	.section	.bss.g_USBD_pfnClassRequest,"aw",%nobits
	.globl	g_USBD_pfnClassRequest
	.p2align	2
g_USBD_pfnClassRequest:
	.long	0
	.size	g_USBD_pfnClassRequest, 4

	.hidden	g_USBD_pfnSetInterface          @ @g_USBD_pfnSetInterface
	.type	g_USBD_pfnSetInterface,%object
	.section	.bss.g_USBD_pfnSetInterface,"aw",%nobits
	.globl	g_USBD_pfnSetInterface
	.p2align	2
g_USBD_pfnSetInterface:
	.long	0
	.size	g_USBD_pfnSetInterface, 4

	.hidden	g_USBD_pfnSetConfigCallback     @ @g_USBD_pfnSetConfigCallback
	.type	g_USBD_pfnSetConfigCallback,%object
	.section	.bss.g_USBD_pfnSetConfigCallback,"aw",%nobits
	.globl	g_USBD_pfnSetConfigCallback
	.p2align	2
g_USBD_pfnSetConfigCallback:
	.long	0
	.size	g_USBD_pfnSetConfigCallback, 4

	.hidden	g_USBD_u32EpStallLock           @ @g_USBD_u32EpStallLock
	.type	g_USBD_u32EpStallLock,%object
	.section	.bss.g_USBD_u32EpStallLock,"aw",%nobits
	.globl	g_USBD_u32EpStallLock
	.p2align	2
g_USBD_u32EpStallLock:
	.long	0                               @ 0x0
	.size	g_USBD_u32EpStallLock, 4

	.hidden	g_USBD_sINFO                    @ @g_USBD_sINFO
	.type	g_USBD_sINFO,%object
	.section	.bss.g_USBD_sINFO,"aw",%nobits
	.globl	g_USBD_sINFO
	.p2align	2
g_USBD_sINFO:
	.long	0
	.size	g_USBD_sINFO, 4

	.type	s_USBD_u32CtrlMaxPktSize,%object @ @s_USBD_u32CtrlMaxPktSize
	.section	.data.s_USBD_u32CtrlMaxPktSize,"aw",%progbits
	.p2align	2
s_USBD_u32CtrlMaxPktSize:
	.long	8                               @ 0x8
	.size	s_USBD_u32CtrlMaxPktSize, 4

	.type	s_USBD_u32CtrlOutToggle,%object @ @s_USBD_u32CtrlOutToggle
	.section	.bss.s_USBD_u32CtrlOutToggle,"aw",%nobits
	.p2align	2
s_USBD_u32CtrlOutToggle:
	.long	0                               @ 0x0
	.size	s_USBD_u32CtrlOutToggle, 4

	.type	s_USBD_u8CtrlInZeroFlag,%object @ @s_USBD_u8CtrlInZeroFlag
	.section	.bss.s_USBD_u8CtrlInZeroFlag,"aw",%nobits
s_USBD_u8CtrlInZeroFlag:
	.byte	0                               @ 0x0
	.size	s_USBD_u8CtrlInZeroFlag, 1

	.type	s_USBD_pu8CtrlInPointer,%object @ @s_USBD_pu8CtrlInPointer
	.section	.bss.s_USBD_pu8CtrlInPointer,"aw",%nobits
	.p2align	2
s_USBD_pu8CtrlInPointer:
	.long	0
	.size	s_USBD_pu8CtrlInPointer, 4

	.type	s_USBD_u32CtrlInSize,%object    @ @s_USBD_u32CtrlInSize
	.section	.bss.s_USBD_u32CtrlInSize,"aw",%nobits
	.p2align	2
s_USBD_u32CtrlInSize:
	.long	0                               @ 0x0
	.size	s_USBD_u32CtrlInSize, 4

	.type	s_USBD_u32UsbConfig,%object     @ @s_USBD_u32UsbConfig
	.section	.bss.s_USBD_u32UsbConfig,"aw",%nobits
	.p2align	2
s_USBD_u32UsbConfig:
	.long	0                               @ 0x0
	.size	s_USBD_u32UsbConfig, 4

	.type	s_USBD_u32UsbAltInterface,%object @ @s_USBD_u32UsbAltInterface
	.section	.bss.s_USBD_u32UsbAltInterface,"aw",%nobits
	.p2align	2
s_USBD_u32UsbAltInterface:
	.long	0                               @ 0x0
	.size	s_USBD_u32UsbAltInterface, 4

	.type	s_USBD_u32UsbAddr,%object       @ @s_USBD_u32UsbAddr
	.section	.bss.s_USBD_u32UsbAddr,"aw",%nobits
	.p2align	2
s_USBD_u32UsbAddr:
	.long	0                               @ 0x0
	.size	s_USBD_u32UsbAddr, 4

	.type	s_USBD_pu8CtrlOutPointer,%object @ @s_USBD_pu8CtrlOutPointer
	.section	.bss.s_USBD_pu8CtrlOutPointer,"aw",%nobits
	.p2align	2
s_USBD_pu8CtrlOutPointer:
	.long	0
	.size	s_USBD_pu8CtrlOutPointer, 4

	.type	s_USBD_u32CtrlOutSize,%object   @ @s_USBD_u32CtrlOutSize
	.section	.bss.s_USBD_u32CtrlOutSize,"aw",%nobits
	.p2align	2
s_USBD_u32CtrlOutSize:
	.long	0                               @ 0x0
	.size	s_USBD_u32CtrlOutSize, 4

	.type	s_USBD_u32CtrlOutSizeLimit,%object @ @s_USBD_u32CtrlOutSizeLimit
	.section	.bss.s_USBD_u32CtrlOutSizeLimit,"aw",%nobits
	.p2align	2
s_USBD_u32CtrlOutSizeLimit:
	.long	0                               @ 0x0
	.size	s_USBD_u32CtrlOutSizeLimit, 4

	.section	".note.GNU-stack","",%progbits
	.eabi_attribute	30, 6	@ Tag_ABI_optimization_goals
	.ARM_attribute	16, 1	@ Tag_AV_eba